ccopy_reg
_reconstructor
p0
(cnltk.probability
ConditionalProbDist
p1
c__builtin__
dict
p2
(dp3
Vall
p4
g0
(cnltk.probability
MLEProbDist
p5
c__builtin__
object
p6
Ntp7
Rp8
(dp9
S'_freqdist'
p10
cnltk.probability
FreqDist
p11
((dp12
Vball
p13
I7
sVwall
p14
I23
sVsquall
p15
I2
sVhaul
p16
I2
sVstall
p17
I5
sVcall
p18
I3
sVfall
p19
I33
sVsmall
p20
I2
sVtall
p21
I4
sVcrawl
p22
I1
sVhall
p23
I6
stp24
Rp25
sbsVforget
p26
g0
(g5
g6
Ntp27
Rp28
(dp29
g10
g11
((dp30
Vyet
p31
I1
sVwet
p32
I2
stp33
Rp34
sbsVale
p35
g0
(g5
g6
Ntp36
Rp37
(dp38
g10
g11
((dp39
Vjail
p40
I3
stp41
Rp42
sbsVdollar
p43
g0
(g5
g6
Ntp44
Rp45
(dp46
g10
g11
((dp47
Vholler
p48
I1
stp49
Rp50
sbsVfour
p51
g0
(g5
g6
Ntp52
Rp53
(dp54
g10
g11
((dp55
Vmore
p56
I14
sVdoor
p57
I20
sVstore
p58
I2
sVfloor
p59
I3
stp60
Rp61
sbsVsleep
p62
g0
(g5
g6
Ntp63
Rp64
(dp65
g10
g11
((dp66
Vdeep
p67
I4
sVcreep
p68
I10
stp69
Rp70
sbsVtalks
p71
g0
(g5
g6
Ntp72
Rp73
(dp74
g10
g11
((dp75
Vwalks
p76
I1
stp77
Rp78
sbsVhate
p79
g0
(g5
g6
Ntp80
Rp81
(dp82
g10
g11
((dp83
Vgate
p84
I1
stp85
Rp86
sbsVgreens
p87
g0
(g5
g6
Ntp88
Rp89
(dp90
g10
g11
((dp91
Vcleans
p92
I1
stp93
Rp94
sbsVto
p95
g0
(g5
g6
Ntp96
Rp97
(dp98
g10
g11
((dp99
Vdo
p100
I8
sVyou
p101
I3
sVcoo
p102
I1
stp103
Rp104
sbsVtail
p105
g0
(g5
g6
Ntp106
Rp107
(dp108
g10
g11
((dp109
Vbail
p110
I1
sVrail
p111
I3
sVtrail
p112
I1
stp113
Rp114
sbsVsmile
p115
g0
(g5
g6
Ntp116
Rp117
(dp118
g10
g11
((dp119
Vwhile
p120
I3
sVawhile
p121
I3
stp122
Rp123
sbsVpride
p124
g0
(g5
g6
Ntp125
Rp126
(dp127
g10
g11
((dp128
Vride
p129
I1
stp130
Rp131
sbsVsway
p132
g0
(g5
g6
Ntp133
Rp134
(dp135
g10
g11
((dp136
Vaway
p137
I1
sVway
p138
I1
stp139
Rp140
sbsVsong
p141
g0
(g5
g6
Ntp142
Rp143
(dp144
g10
g11
((dp145
Valong
p146
I5
sVgong
p147
I1
sVwrong
p148
I5
sVlong
p149
I26
stp150
Rp151
sbsVfar
p152
g0
(g5
g6
Ntp153
Rp154
(dp155
g10
g11
((dp156
Vcar
p157
I4
sVare
p158
I1
stp159
Rp160
sbsVrise
p161
g0
(g5
g6
Ntp162
Rp163
(dp164
g10
g11
((dp165
Veyes
p166
I1
stp167
Rp168
sbsVfat
p169
g0
(g5
g6
Ntp170
Rp171
(dp172
g10
g11
((dp173
Vthat
p174
I6
stp175
Rp176
sbsVscout
p177
g0
(g5
g6
Ntp178
Rp179
(dp180
g10
g11
((dp181
Vout
p182
I2
stp183
Rp184
sbsVworst
p185
g0
(g5
g6
Ntp186
Rp187
(dp188
g10
g11
((dp189
Vfirst
p190
I2
stp191
Rp192
sbsVjack
p193
g0
(g5
g6
Ntp194
Rp195
(dp196
g10
g11
((dp197
Vtrack
p198
I1
sVblack
p199
I1
sVback
p200
I12
stp201
Rp202
sbsVfall
p203
g0
(g5
g6
Ntp204
Rp205
(dp206
g10
g11
((dp207
Vall
p208
I33
sVball
p209
I1
sVwall
p210
I4
sVtall
p211
I5
sVstall
p212
I4
sVcrawl
p213
I1
sVhall
p214
I1
stp215
Rp216
sbsVlook
p217
g0
(g5
g6
Ntp218
Rp219
(dp220
g10
g11
((dp221
Vbook
p222
I1
stp223
Rp224
sbsVschool
p225
g0
(g5
g6
Ntp226
Rp227
(dp228
g10
g11
((dp229
Vfool
p230
I2
sVrule
p231
I9
sVcool
p232
I1
stp233
Rp234
sbsVheaven
p235
g0
(g5
g6
Ntp236
Rp237
(dp238
g10
g11
((dp239
Vseven
p240
I3
stp241
Rp242
sbsVsand
p243
g0
(g5
g6
Ntp244
Rp245
(dp246
g10
g11
((dp247
Vland
p248
I3
sVunderstand
p249
I2
sVhand
p250
I3
stp251
Rp252
sbsg20
g0
(g5
g6
Ntp253
Rp254
(dp255
g10
g11
((dp256
Vall
p257
I2
sVhall
p258
I2
stp259
Rp260
sbsVclothes
p261
g0
(g5
g6
Ntp262
Rp263
(dp264
g10
g11
((dp265
Vmose
p266
I1
sVknows
p267
I3
sVgoes
p268
I3
sVfroze
p269
I1
stp270
Rp271
sbsVenjoy
p272
g0
(g5
g6
Ntp273
Rp274
(dp275
g10
g11
((dp276
Vboy
p277
I1
stp278
Rp279
sbsVchew
p280
g0
(g5
g6
Ntp281
Rp282
(dp283
g10
g11
((dp284
Vyou
p285
I1
stp286
Rp287
sbsVnigh
p288
g0
(g5
g6
Ntp289
Rp290
(dp291
g10
g11
((dp292
Vdie
p293
I1
stp294
Rp295
sbsVtea
p296
g0
(g5
g6
Ntp297
Rp298
(dp299
g10
g11
((dp300
Vme
p301
I13
sVbe
p302
I1
sVkey
p303
I4
sVfree
p304
I1
stp305
Rp306
sbsVhorn
p307
g0
(g5
g6
Ntp308
Rp309
(dp310
g10
g11
((dp311
Vborn
p312
I1
sVcorn
p313
I1
stp314
Rp315
sbsVpast
p316
g0
(g5
g6
Ntp317
Rp318
(dp319
g10
g11
((dp320
Vlast
p321
I4
stp322
Rp323
sbsVcrave
p324
g0
(g5
g6
Ntp325
Rp326
(dp327
g10
g11
((dp328
Vrave
p329
I1
sVsave
p330
I1
sVgrave
p331
I17
stp332
Rp333
sbsVstreet
p334
g0
(g5
g6
Ntp335
Rp336
(dp337
g10
g11
((dp338
Vpete
p339
I2
sVmeat
p340
I1
sVbeat
p341
I5
sVsweet
p342
I2
sVfeet
p343
I9
sVheat
p344
I1
sVmeet
p345
I19
sVeat
p346
I2
stp347
Rp348
sbsVair
p349
g0
(g5
g6
Ntp350
Rp351
(dp352
g10
g11
((dp353
Vchair
p354
I1
sVthere
p355
I7
sVfair
p356
I1
sVcare
p357
I1
stp358
Rp359
sbsVchair
p360
g0
(g5
g6
Ntp361
Rp362
(dp363
g10
g11
((dp364
Vhair
p365
I1
sg349
I1
sVthere
p366
I1
sVcare
p367
I2
stp368
Rp369
sbsVblue
p370
g0
(g5
g6
Ntp371
Rp372
(dp373
g10
g11
((dp374
Vdo
p375
I26
sVyou
p376
I25
sVthrough
p377
I5
sVtoo
p378
I1
stp379
Rp380
sbsVwill
p381
g0
(g5
g6
Ntp382
Rp383
(dp384
g10
g11
((dp385
Vhill
p386
I8
sVchill
p387
I2
sVstill
p388
I1
sVthrill
p389
I1
sVmill
p390
I1
sVbill
p391
I6
sVfill
p392
I1
stp393
Rp394
sbsVsue
p395
g0
(g5
g6
Ntp396
Rp397
(dp398
g10
g11
((dp399
Vdo
p400
I2
stp401
Rp402
sbsVhide
p403
g0
(g5
g6
Ntp404
Rp405
(dp406
g10
g11
((dp407
Vride
p408
I2
stp409
Rp410
sbsVwreck
p411
g0
(g5
g6
Ntp412
Rp413
(dp414
g10
g11
((dp415
Vneck
p416
I1
stp417
Rp418
sbsVsun
p419
g0
(g5
g6
Ntp420
Rp421
(dp422
g10
g11
((dp423
Vnone
p424
I2
sVrun
p425
I4
sVbegun
p426
I1
sVfun
p427
I2
sVdone
p428
I21
sVone
p429
I2
stp430
Rp431
sbsVstool
p432
g0
(g5
g6
Ntp433
Rp434
(dp435
g10
g11
((dp436
Vfool
p437
I1
stp438
Rp439
sbsVwhile
p440
g0
(g5
g6
Ntp441
Rp442
(dp443
g10
g11
((dp444
Vaisle
p445
I1
sVstyle
p446
I1
sVpile
p447
I1
sVsmile
p448
I3
stp449
Rp450
sbsVabove
p451
g0
(g5
g6
Ntp452
Rp453
(dp454
g10
g11
((dp455
Vlove
p456
I15
stp457
Rp458
sbsVnew
p459
g0
(g5
g6
Ntp460
Rp461
(dp462
g10
g11
((dp463
Vdo
p464
I7
sVyou
p465
I1
sVstew
p466
I1
stp467
Rp468
sbsVtold
p469
g0
(g5
g6
Ntp470
Rp471
(dp472
g10
g11
((dp473
Vcold
p474
I1
sVold
p475
I3
sVsold
p476
I1
sVgold
p477
I3
stp478
Rp479
sbsVtoes
p480
g0
(g5
g6
Ntp481
Rp482
(dp483
g10
g11
((dp484
Vknows
p485
I2
sVgoes
p486
I2
stp487
Rp488
sbsVhash
p489
g0
(g5
g6
Ntp490
Rp491
(dp492
g10
g11
((dp493
Vcash
p494
I1
stp495
Rp496
sbsVmen
p497
g0
(g5
g6
Ntp498
Rp499
(dp500
g10
g11
((dp501
Vagain
p502
I4
sVwhen
p503
I3
sVden
p504
I3
sVten
p505
I1
sVn
p506
I1
stp507
Rp508
sbsVhere
p509
g0
(g5
g6
Ntp510
Rp511
(dp512
g10
g11
((dp513
Vear
p514
I1
sVhear
p515
I1
stp516
Rp517
sbsVmule
p518
g0
(g5
g6
Ntp519
Rp520
(dp521
g10
g11
((dp522
Vfool
p523
I11
sVrule
p524
I4
stp525
Rp526
sbsVmet
p527
g0
(g5
g6
Ntp528
Rp529
(dp530
g10
g11
((dp531
Vwet
p532
I3
stp533
Rp534
sbsVtrunk
p535
g0
(g5
g6
Ntp536
Rp537
(dp538
g10
g11
((dp539
Vdrunk
p540
I11
stp541
Rp542
sbsVstrong
p543
g0
(g5
g6
Ntp544
Rp545
(dp546
g10
g11
((dp547
Vwrong
p548
I3
sVlong
p549
I3
stp550
Rp551
sbsVdry
p552
g0
(g5
g6
Ntp553
Rp554
(dp555
g10
g11
((dp556
Vdie
p557
I4
sVcry
p558
I1
sVgoodbye
p559
I3
stp560
Rp561
sbsVahead
p562
g0
(g5
g6
Ntp563
Rp564
(dp565
g10
g11
((dp566
Vbed
p567
I1
sVdead
p568
I1
stp569
Rp570
sbsVsmoke
p571
g0
(g5
g6
Ntp572
Rp573
(dp574
g10
g11
((dp575
Vjoke
p576
I1
stp577
Rp578
sbsVtechnique
p579
g0
(g5
g6
Ntp580
Rp581
(dp582
g10
g11
((dp583
Vseek
p584
I1
stp585
Rp586
sbsVpound
p587
g0
(g5
g6
Ntp588
Rp589
(dp590
g10
g11
((dp591
Vground
p592
I2
stp593
Rp594
sbsVtoys
p595
g0
(g5
g6
Ntp596
Rp597
(dp598
g10
g11
((dp599
Vboys
p600
I1
sVnoise
p601
I1
stp602
Rp603
sbsVplot
p604
g0
(g5
g6
Ntp605
Rp606
(dp607
g10
g11
((dp608
Vhot
p609
I1
stp610
Rp611
sbsVeye
p612
g0
(g5
g6
Ntp613
Rp614
(dp615
g10
g11
((dp616
Vlie
p617
I1
sVgoodbye
p618
I1
sVi
p619
I1
sVdie
p620
I1
sVjuly
p621
I1
sVcry
p622
I3
sVpie
p623
I1
stp624
Rp625
sbsVwould
p626
g0
(g5
g6
Ntp627
Rp628
(dp629
g10
g11
((dp630
Vcould
p631
I1
sVgood
p632
I1
stp633
Rp634
sbsVtwo
p635
g0
(g5
g6
Ntp636
Rp637
(dp638
g10
g11
((dp639
Vdo
p640
I21
sVthrough
p641
I5
sVtoo
p642
I3
sVyou
p643
I15
sVloo
p644
I1
sVcrew
p645
I1
stp646
Rp647
sbsVcall
p648
g0
(g5
g6
Ntp649
Rp650
(dp651
g10
g11
((dp652
Vtall
p653
I1
sVall
p654
I3
sVstall
p655
I1
stp656
Rp657
sbsVjive
p658
g0
(g5
g6
Ntp659
Rp660
(dp661
g10
g11
((dp662
Vfive
p663
I1
stp664
Rp665
sbsVtell
p666
g0
(g5
g6
Ntp667
Rp668
(dp669
g10
g11
((dp670
Vhell
p671
I2
sVfell
p672
I1
sVfarewell
p673
I1
sVwell
p674
I5
stp675
Rp676
sbsVmore
p677
g0
(g5
g6
Ntp678
Rp679
(dp680
g10
g11
((dp681
Vdoor
p682
I142
sVmoore
p683
I1
sVfor
p684
I2
sVfloor
p685
I13
sVfour
p686
I14
sVsore
p687
I15
sVshore
p688
I3
sVadore
p689
I1
sVbefore
p690
I29
stp691
Rp692
sbsVflat
p693
g0
(g5
g6
Ntp694
Rp695
(dp696
g10
g11
((dp697
Vsat
p698
I1
sVhat
p699
I1
sVmat
p700
I1
sVthat
p701
I2
stp702
Rp703
sbsVleese
p704
g0
(g5
g6
Ntp705
Rp706
(dp707
g10
g11
((dp708
Vpolice
p709
I1
stp710
Rp711
sbsVdoor
p712
g0
(g5
g6
Ntp713
Rp714
(dp715
g10
g11
((dp716
Vfour
p717
I20
sVanymore
p718
I5
sVfloor
p719
I13
sVbefore
p720
I29
sVstore
p721
I1
sVmore
p722
I142
stp723
Rp724
sbsVknows
p725
g0
(g5
g6
Ntp726
Rp727
(dp728
g10
g11
((dp729
Vtoes
p730
I2
sVgoes
p731
I1
sVclothes
p732
I3
stp733
Rp734
sbsVexcuse
p735
g0
(g5
g6
Ntp736
Rp737
(dp738
g10
g11
((dp739
Vloose
p740
I2
stp741
Rp742
sbsVain't
p743
g0
(g5
g6
Ntp744
Rp745
(dp746
g10
g11
((dp747
Vpaint
p748
I1
stp749
Rp750
sbsVstick
p751
g0
(g5
g6
Ntp752
Rp753
(dp754
g10
g11
((dp755
Vquick
p756
I1
sVsick
p757
I3
stp758
Rp759
sbsVbroke
p760
g0
(g5
g6
Ntp761
Rp762
(dp763
g10
g11
((dp764
Vjoke
p765
I1
sVstroke
p766
I1
sVsoak
p767
I2
stp768
Rp769
sbsVknown
p770
g0
(g5
g6
Ntp771
Rp772
(dp773
g10
g11
((dp774
Valone
p775
I1
stp776
Rp777
sbsVhole
p778
g0
(g5
g6
Ntp779
Rp780
(dp781
g10
g11
((dp782
Vcoal
p783
I1
sVsoul
p784
I2
stp785
Rp786
sbsVglad
p787
g0
(g5
g6
Ntp788
Rp789
(dp790
g10
g11
((dp791
Vmad
p792
I2
sVsad
p793
I1
stp794
Rp795
sbsVmust
p796
g0
(g5
g6
Ntp797
Rp798
(dp799
g10
g11
((dp800
Vdust
p801
I3
stp802
Rp803
sbsVme
p804
g0
(g5
g6
Ntp805
Rp806
(dp807
g10
g11
((dp808
Vbe
p809
I192
sVsea
p810
I59
sVdegree
p811
I4
sVtea
p812
I13
sVthee
p813
I1
sVfree
p814
I11
sVsee
p815
I69
sVtennessee
p816
I46
sVkey
p817
I5
sVflea
p818
I1
sVknee
p819
I11
sVguarantee
p820
I1
sVjubilee
p821
I1
sVwee
p822
I2
sVglee
p823
I2
sVtree
p824
I20
sVthree
p825
I19
sVbee
p826
I1
sVplea
p827
I11
sVz
p828
I1
sVgee
p829
I2
sVagree
p830
I11
stp831
Rp832
sbsVnone
p833
g0
(g5
g6
Ntp834
Rp835
(dp836
g10
g11
((dp837
Vwon
p838
I1
sVdone
p839
I10
sVfun
p840
I1
sVsun
p841
I2
sVgun
p842
I1
sVone
p843
I1
stp844
Rp845
sbsVword
p846
g0
(g5
g6
Ntp847
Rp848
(dp849
g10
g11
((dp850
Vheard
p851
I7
sVbird
p852
I1
stp853
Rp854
sbsVroom
p855
g0
(g5
g6
Ntp856
Rp857
(dp858
g10
g11
((dp859
Vbroom
p860
I2
sVbloom
p861
I1
sVtomb
p862
I1
stp863
Rp864
sbsVhour
p865
g0
(g5
g6
Ntp866
Rp867
(dp868
g10
g11
((dp869
Vflour
p870
I2
stp871
Rp872
sbsVnine
p873
g0
(g5
g6
Ntp874
Rp875
(dp876
g10
g11
((dp877
Vline
p878
I5
sVfine
p879
I5
sVmine
p880
I11
sVwine
p881
I1
stp882
Rp883
sbsg504
g0
(g5
g6
Ntp884
Rp885
(dp886
g10
g11
((dp887
Vagain
p888
I1
sVhen
p889
I1
sVmen
p890
I3
stp891
Rp892
sbsVlearn
p893
g0
(g5
g6
Ntp894
Rp895
(dp896
g10
g11
((dp897
Vburn
p898
I1
stp899
Rp900
sbsVmy
p901
g0
(g5
g6
Ntp902
Rp903
(dp904
g10
g11
((dp905
Vcry
p906
I1
stp907
Rp908
sbsVcussing
p909
g0
(g5
g6
Ntp910
Rp911
(dp912
g10
g11
((dp913
Vfussing
p914
I1
stp915
Rp916
sbsVquiver
p917
g0
(g5
g6
Ntp918
Rp919
(dp920
g10
g11
((dp921
Vliver
p922
I1
stp923
Rp924
sbsVgive
p925
g0
(g5
g6
Ntp926
Rp927
(dp928
g10
g11
((dp929
Vlive
p930
I1
stp931
Rp932
sbsVlouse
p933
g0
(g5
g6
Ntp934
Rp935
(dp936
g10
g11
((dp937
Vhouse
p938
I1
sVmouse
p939
I1
stp940
Rp941
sbsVhoney
p942
g0
(g5
g6
Ntp943
Rp944
(dp945
g10
g11
((dp946
Vfunny
p947
I5
stp948
Rp949
sbsVsense
p950
g0
(g5
g6
Ntp951
Rp952
(dp953
g10
g11
((dp954
Vfence
p955
I13
stp956
Rp957
sbsVbeale
p958
g0
(g5
g6
Ntp959
Rp960
(dp961
g10
g11
((dp962
Vlucille
p963
I2
sVsteal
p964
I1
stp965
Rp966
sbsVscat
p967
g0
(g5
g6
Ntp968
Rp969
(dp970
g10
g11
((dp971
Vcat
p972
I1
stp973
Rp974
sbsg820
g0
(g5
g6
Ntp975
Rp976
(dp977
g10
g11
((dp978
Vme
p979
I1
sVbe
p980
I1
sVsee
p981
I1
stp982
Rp983
sbsVhoe
p984
g0
(g5
g6
Ntp985
Rp986
(dp987
g10
g11
((dp988
Vsnow
p989
I1
sVknow
p990
I1
stp991
Rp992
sbsVend
p993
g0
(g5
g6
Ntp994
Rp995
(dp996
g10
g11
((dp997
Vfriend
p998
I5
stp999
Rp1000
sbsVturn
p1001
g0
(g5
g6
Ntp1002
Rp1003
(dp1004
g10
g11
((dp1005
Vburn
p1006
I1
stp1007
Rp1008
sbsVhoo
p1009
g0
(g5
g6
Ntp1010
Rp1011
(dp1012
g10
g11
((dp1013
Vtoo
p1014
I4
stp1015
Rp1016
sbsVrye
p1017
g0
(g5
g6
Ntp1018
Rp1019
(dp1020
g10
g11
((dp1021
Vhigh
p1022
I1
sVlie
p1023
I1
sVwhy
p1024
I1
sVgoodbye
p1025
I1
stp1026
Rp1027
sbsVmachine
p1028
g0
(g5
g6
Ntp1029
Rp1030
(dp1031
g10
g11
((dp1032
Vseen
p1033
I2
sVbean
p1034
I1
stp1035
Rp1036
sbsVhow
p1037
g0
(g5
g6
Ntp1038
Rp1039
(dp1040
g10
g11
((dp1041
Vcow
p1042
I3
sVwow
p1043
I1
sVnow
p1044
I22
sVallow
p1045
I2
sVsow
p1046
I1
stp1047
Rp1048
sbsVhot
p1049
g0
(g5
g6
Ntp1050
Rp1051
(dp1052
g10
g11
((dp1053
Vnot
p1054
I2
sg604
I1
sVpot
p1055
I2
sVspot
p1056
I1
sVgot
p1057
I2
stp1058
Rp1059
sbsVhop
p1060
g0
(g5
g6
Ntp1061
Rp1062
(dp1063
g10
g11
((dp1064
Vstop
p1065
I1
stp1066
Rp1067
sbsVgate
p1068
g0
(g5
g6
Ntp1069
Rp1070
(dp1071
g10
g11
((dp1072
Vlate
p1073
I4
sg79
I1
sVeight
p1074
I4
sVkate
p1075
I1
sVwait
p1076
I1
stp1077
Rp1078
sbsVgoat
p1079
g0
(g5
g6
Ntp1080
Rp1081
(dp1082
g10
g11
((dp1083
Vthroat
p1084
I1
sVcoat
p1085
I1
sVnote
p1086
I1
stp1087
Rp1088
sbsVtried
p1089
g0
(g5
g6
Ntp1090
Rp1091
(dp1092
g10
g11
((dp1093
Vcried
p1094
I1
stp1095
Rp1096
sbsVmess
p1097
g0
(g5
g6
Ntp1098
Rp1099
(dp1100
g10
g11
((dp1101
Vguess
p1102
I1
sVconfess
p1103
I1
stp1104
Rp1105
sbsVadvice
p1106
g0
(g5
g6
Ntp1107
Rp1108
(dp1109
g10
g11
((dp1110
Vtwice
p1111
I2
sVrice
p1112
I2
sVnice
p1113
I1
stp1114
Rp1115
sbsVlump
p1116
g0
(g5
g6
Ntp1117
Rp1118
(dp1119
g10
g11
((dp1120
Vstump
p1121
I2
stp1122
Rp1123
sbsVwrong
p1124
g0
(g5
g6
Ntp1125
Rp1126
(dp1127
g10
g11
((dp1128
Valong
p1129
I16
sVstrong
p1130
I3
sVlong
p1131
I48
sVsong
p1132
I5
stp1133
Rp1134
sbsVlay
p1135
g0
(g5
g6
Ntp1136
Rp1137
(dp1138
g10
g11
((dp1139
Vsay
p1140
I4
sVaway
p1141
I1
sVday
p1142
I24
sVway
p1143
I2
sVstay
p1144
I1
stp1145
Rp1146
sbsVchoice
p1147
g0
(g5
g6
Ntp1148
Rp1149
(dp1150
g10
g11
((dp1151
Vvoice
p1152
I1
stp1153
Rp1154
sbsg861
g0
(g5
g6
Ntp1155
Rp1156
(dp1157
g10
g11
((dp1158
Vroom
p1159
I1
stp1160
Rp1161
sbsVroyce
p1162
g0
(g5
g6
Ntp1163
Rp1164
(dp1165
g10
g11
((dp1166
Vvoice
p1167
I1
stp1168
Rp1169
sbsVa
p1170
g0
(g5
g6
Ntp1171
Rp1172
(dp1173
g10
g11
((dp1174
Vplay
p1175
I1
sVway
p1176
I3
sVpay
p1177
I1
sVaway
p1178
I1
sVday
p1179
I2
sVtoday
p1180
I1
sVstay
p1181
I5
stp1182
Rp1183
sbsVvance
p1184
g0
(g5
g6
Ntp1185
Rp1186
(dp1187
g10
g11
((dp1188
Vchance
p1189
I1
stp1190
Rp1191
sbsg1085
g0
(g5
g6
Ntp1192
Rp1193
(dp1194
g10
g11
((dp1195
Vgoat
p1196
I1
stp1197
Rp1198
sbsVspout
p1199
g0
(g5
g6
Ntp1200
Rp1201
(dp1202
g10
g11
((dp1203
Vout
p1204
I1
stp1205
Rp1206
sbsVthink
p1207
g0
(g5
g6
Ntp1208
Rp1209
(dp1210
g10
g11
((dp1211
Vdrink
p1212
I7
sVmink
p1213
I1
stp1214
Rp1215
sbsVcoal
p1216
g0
(g5
g6
Ntp1217
Rp1218
(dp1219
g10
g11
((dp1220
Vhole
p1221
I1
sVsoul
p1222
I4
stp1223
Rp1224
sbsg688
g0
(g5
g6
Ntp1225
Rp1226
(dp1227
g10
g11
((dp1228
Vmore
p1229
I3
sVfloor
p1230
I1
stp1231
Rp1232
sbsVhaste
p1233
g0
(g5
g6
Ntp1234
Rp1235
(dp1236
g10
g11
((dp1237
Vwaist
p1238
I1
stp1239
Rp1240
sbsVgoodbye
p1241
g0
(g5
g6
Ntp1242
Rp1243
(dp1244
g10
g11
((dp1245
Vdry
p1246
I3
sVcry
p1247
I8
sVeye
p1248
I1
sVsly
p1249
I1
sVdie
p1250
I4
sVrye
p1251
I1
sVby
p1252
I3
sVwhy
p1253
I3
stp1254
Rp1255
sbsVbelle
p1256
g0
(g5
g6
Ntp1257
Rp1258
(dp1259
g10
g11
((dp1260
Vwell
p1261
I2
stp1262
Rp1263
sbsVdream
p1264
g0
(g5
g6
Ntp1265
Rp1266
(dp1267
g10
g11
((dp1268
Vscream
p1269
I3
sVcream
p1270
I1
stp1271
Rp1272
sbsVwing
p1273
g0
(g5
g6
Ntp1274
Rp1275
(dp1276
g10
g11
((dp1277
Vthing
p1278
I1
sVsing
p1279
I1
stp1280
Rp1281
sbsVwine
p1282
g0
(g5
g6
Ntp1283
Rp1284
(dp1285
g10
g11
((dp1286
Vfine
p1287
I1
sVline
p1288
I1
sVnine
p1289
I1
sVmine
p1290
I6
stp1291
Rp1292
sbsVshay
p1293
g0
(g5
g6
Ntp1294
Rp1295
(dp1296
g10
g11
((dp1297
Vhay
p1298
I2
stp1299
Rp1300
sbsVdon't
p1301
g0
(g5
g6
Ntp1302
Rp1303
(dp1304
g10
g11
((dp1305
Vwon't
p1306
I6
stp1307
Rp1308
sbsVover
p1309
g0
(g5
g6
Ntp1310
Rp1311
(dp1312
g10
g11
((dp1313
Vclover
p1314
I1
stp1315
Rp1316
sbsVsoon
p1317
g0
(g5
g6
Ntp1318
Rp1319
(dp1320
g10
g11
((dp1321
Vnoon
p1322
I1
sVafternoon
p1323
I1
stp1324
Rp1325
sbsVtrade
p1326
g0
(g5
g6
Ntp1327
Rp1328
(dp1329
g10
g11
((dp1330
Vmaid
p1331
I1
stp1332
Rp1333
sbsVdough
p1334
g0
(g5
g6
Ntp1335
Rp1336
(dp1337
g10
g11
((dp1338
Vblow
p1339
I1
sVslow
p1340
I2
sVshow
p1341
I1
sVlow
p1342
I1
sVso
p1343
I1
sVknow
p1344
I2
sVgo
p1345
I3
sVtoe
p1346
I1
stp1347
Rp1348
sbsg671
g0
(g5
g6
Ntp1349
Rp1350
(dp1351
g10
g11
((dp1352
Vcell
p1353
I1
sVbell
p1354
I2
sVswell
p1355
I2
sVspell
p1356
I1
sVwell
p1357
I17
sVtell
p1358
I2
stp1359
Rp1360
sbsVbefore
p1361
g0
(g5
g6
Ntp1362
Rp1363
(dp1364
g10
g11
((dp1365
g687
I4
sVdoor
p1366
I29
sVanymore
p1367
I3
sVfloor
p1368
I5
sVroar
p1369
I1
sVmore
p1370
I29
stp1371
Rp1372
sbsg446
g0
(g5
g6
Ntp1373
Rp1374
(dp1375
g10
g11
((dp1376
Vwhile
p1377
I1
stp1378
Rp1379
sbsVfit
p1380
g0
(g5
g6
Ntp1381
Rp1382
(dp1383
g10
g11
((dp1384
Vquit
p1385
I1
stp1386
Rp1387
sbsVpray
p1388
g0
(g5
g6
Ntp1389
Rp1390
(dp1391
g10
g11
((dp1392
Vday
p1393
I7
sVplay
p1394
I1
sVsay
p1395
I3
sVway
p1396
I2
sVaway
p1397
I1
stp1398
Rp1399
sbsVfix
p1400
g0
(g5
g6
Ntp1401
Rp1402
(dp1403
g10
g11
((dp1404
Vsix
p1405
I3
stp1406
Rp1407
sbsVcrew
p1408
g0
(g5
g6
Ntp1409
Rp1410
(dp1411
g10
g11
((dp1412
Vthrough
p1413
I2
sVtwo
p1414
I1
stp1415
Rp1416
sbsVlate
p1417
g0
(g5
g6
Ntp1418
Rp1419
(dp1420
g10
g11
((dp1421
Vstraight
p1422
I1
sVgait
p1423
I1
sVmate
p1424
I1
sVeight
p1425
I3
sVfreight
p1426
I1
sVdate
p1427
I2
sg1068
I4
sVwait
p1428
I4
stp1429
Rp1430
sbsVfeel
p1431
g0
(g5
g6
Ntp1432
Rp1433
(dp1434
g10
g11
((dp1435
Vwheel
p1436
I2
sVsteel
p1437
I3
sVdeal
p1438
I2
sVheal
p1439
I1
sVsteal
p1440
I4
sVmeal
p1441
I2
stp1442
Rp1443
sbsVmight
p1444
g0
(g5
g6
Ntp1445
Rp1446
(dp1447
g10
g11
((dp1448
Vright
p1449
I1
sVsight
p1450
I1
sVnight
p1451
I1
stp1452
Rp1453
sbsVfool
p1454
g0
(g5
g6
Ntp1455
Rp1456
(dp1457
g10
g11
((dp1458
Vschool
p1459
I2
sVtool
p1460
I1
sg432
I1
sVrule
p1461
I9
sVmule
p1462
I11
sVcruel
p1463
I1
sVpool
p1464
I2
sVcool
p1465
I4
stp1466
Rp1467
sbsVthen
p1468
g0
(g5
g6
Ntp1469
Rp1470
(dp1471
g10
g11
((dp1472
Vhen
p1473
I1
stp1474
Rp1475
sbsVgood
p1476
g0
(g5
g6
Ntp1477
Rp1478
(dp1479
g10
g11
((dp1480
Vunderstood
p1481
I2
sVcould
p1482
I17
sVwood
p1483
I12
sg626
I1
sVshould
p1484
I10
stp1485
Rp1486
sbsg813
g0
(g5
g6
Ntp1487
Rp1488
(dp1489
g10
g11
((dp1490
Vme
p1491
I1
sVsea
p1492
I1
stp1493
Rp1494
sbsg112
g0
(g5
g6
Ntp1495
Rp1496
(dp1497
g10
g11
((dp1498
Vfail
p1499
I1
sVmail
p1500
I2
sVtail
p1501
I1
sVjail
p1502
I1
sVhail
p1503
I1
stp1504
Rp1505
sbsVbreak
p1506
g0
(g5
g6
Ntp1507
Rp1508
(dp1509
g10
g11
((dp1510
Vache
p1511
I1
sVmake
p1512
I1
sVsnake
p1513
I1
stp1514
Rp1515
sbsVone
p1516
g0
(g5
g6
Ntp1517
Rp1518
(dp1519
g10
g11
((dp1520
Vnone
p1521
I1
sVrun
p1522
I2
sVsun
p1523
I2
sVgun
p1524
I3
sVwon
p1525
I1
sVdone
p1526
I7
sVbegun
p1527
I4
sVfun
p1528
I8
stp1529
Rp1530
sbsVbank
p1531
g0
(g5
g6
Ntp1532
Rp1533
(dp1534
g10
g11
((dp1535
Vdrank
p1536
I1
sVlank
p1537
I2
stp1538
Rp1539
sbsVbread
p1540
g0
(g5
g6
Ntp1541
Rp1542
(dp1543
g10
g11
((dp1544
Vhead
p1545
I2
sVbed
p1546
I7
sVdead
p1547
I1
stp1548
Rp1549
sbsg340
g0
(g5
g6
Ntp1550
Rp1551
(dp1552
g10
g11
((dp1553
Vmeet
p1554
I1
sVstreet
p1555
I1
sVwheat
p1556
I1
sVeat
p1557
I4
stp1558
Rp1559
sbsVrocks
p1560
g0
(g5
g6
Ntp1561
Rp1562
(dp1563
g10
g11
((dp1564
Vfox
p1565
I1
stp1566
Rp1567
sbsVdumps
p1568
g0
(g5
g6
Ntp1569
Rp1570
(dp1571
g10
g11
((dp1572
Vmumps
p1573
I1
stp1574
Rp1575
sbsVfound
p1576
g0
(g5
g6
Ntp1577
Rp1578
(dp1579
g10
g11
((dp1580
Vground
p1581
I3
sVbound
p1582
I1
sVaround
p1583
I10
stp1584
Rp1585
sbsVwent
p1586
g0
(g5
g6
Ntp1587
Rp1588
(dp1589
g10
g11
((dp1590
Vcent
p1591
I2
stp1592
Rp1593
sbsVside
p1594
g0
(g5
g6
Ntp1595
Rp1596
(dp1597
g10
g11
((dp1598
Vwide
p1599
I4
sVdied
p1600
I4
sVcried
p1601
I4
sVride
p1602
I8
sVguide
p1603
I1
sVtied
p1604
I1
stp1605
Rp1606
sbsVbone
p1607
g0
(g5
g6
Ntp1608
Rp1609
(dp1610
g10
g11
((dp1611
Valone
p1612
I3
sVmoan
p1613
I2
sVjoan
p1614
I1
stp1615
Rp1616
sbsVmean
p1617
g0
(g5
g6
Ntp1618
Rp1619
(dp1620
g10
g11
((dp1621
Vsubmarine
p1622
I1
sVgreen
p1623
I1
sVclean
p1624
I10
sVseen
p1625
I7
sVscreen
p1626
I1
sVscene
p1627
I1
stp1628
Rp1629
sbsVharm
p1630
g0
(g5
g6
Ntp1631
Rp1632
(dp1633
g10
g11
((dp1634
Vfarm
p1635
I2
sValarm
p1636
I1
sVarm
p1637
I2
stp1638
Rp1639
sbsVupstairs
p1640
g0
(g5
g6
Ntp1641
Rp1642
(dp1643
g10
g11
((dp1644
Vairs
p1645
I1
stp1646
Rp1647
sbsg938
g0
(g5
g6
Ntp1648
Rp1649
(dp1650
g10
g11
((dp1651
Vmouse
p1652
I2
sVlouse
p1653
I1
stp1654
Rp1655
sbsVhard
p1656
g0
(g5
g6
Ntp1657
Rp1658
(dp1659
g10
g11
((dp1660
Vbarred
p1661
I2
sVyard
p1662
I15
sVlard
p1663
I1
stp1664
Rp1665
sbsVreduce
p1666
g0
(g5
g6
Ntp1667
Rp1668
(dp1669
g10
g11
((dp1670
Vjuice
p1671
I1
stp1672
Rp1673
sbsVbrother
p1674
g0
(g5
g6
Ntp1675
Rp1676
(dp1677
g10
g11
((dp1678
Vanother
p1679
I1
stp1680
Rp1681
sbsg914
g0
(g5
g6
Ntp1682
Rp1683
(dp1684
g10
g11
((dp1685
g909
I1
stp1686
Rp1687
sbsVexpect
p1688
g0
(g5
g6
Ntp1689
Rp1690
(dp1691
g10
g11
((dp1692
Vneglect
p1693
I1
stp1694
Rp1695
sbsVdawn
p1696
g0
(g5
g6
Ntp1697
Rp1698
(dp1699
g10
g11
((dp1700
Vlawn
p1701
I1
stp1702
Rp1703
sbsVblows
p1704
g0
(g5
g6
Ntp1705
Rp1706
(dp1707
g10
g11
((dp1708
Vgoes
p1709
I1
stp1710
Rp1711
sbsVtry
p1712
g0
(g5
g6
Ntp1713
Rp1714
(dp1715
g10
g11
((dp1716
Vbye
p1717
I1
stp1718
Rp1719
sbsVp
p1720
g0
(g5
g6
Ntp1721
Rp1722
(dp1723
g10
g11
((dp1724
Vtennessee
p1725
I1
stp1726
Rp1727
sbsVgod
p1728
g0
(g5
g6
Ntp1729
Rp1730
(dp1731
g10
g11
((dp1732
Vrod
p1733
I1
stp1734
Rp1735
sbsVhill
p1736
g0
(g5
g6
Ntp1737
Rp1738
(dp1739
g10
g11
((dp1740
Vwill
p1741
I8
sVmill
p1742
I3
sVstill
p1743
I9
sVbill
p1744
I2
sVthrill
p1745
I1
stp1746
Rp1747
sbsVgot
p1748
g0
(g5
g6
Ntp1749
Rp1750
(dp1751
g10
g11
((dp1752
Vnot
p1753
I1
sVhot
p1754
I2
sVshot
p1755
I1
sVlot
p1756
I1
stp1757
Rp1758
sbsVgrease
p1759
g0
(g5
g6
Ntp1760
Rp1761
(dp1762
g10
g11
((dp1763
Vpolice
p1764
I1
stp1765
Rp1766
sbsVbass
p1767
g0
(g5
g6
Ntp1768
Rp1769
(dp1770
g10
g11
((dp1771
Vface
p1772
I1
stp1773
Rp1774
sbsVdirt
p1775
g0
(g5
g6
Ntp1776
Rp1777
(dp1778
g10
g11
((dp1779
Vskirt
p1780
I1
sVshirt
p1781
I1
stp1782
Rp1783
sbsVfree
p1784
g0
(g5
g6
Ntp1785
Rp1786
(dp1787
g10
g11
((dp1788
Vme
p1789
I11
sVtea
p1790
I1
sVtennessee
p1791
I2
sVthree
p1792
I1
sVbe
p1793
I1
stp1794
Rp1795
sbsVjew
p1796
g0
(g5
g6
Ntp1797
Rp1798
(dp1799
g10
g11
((dp1800
Vyou
p1801
I6
sVtrue
p1802
I1
stp1803
Rp1804
sbsg445
g0
(g5
g6
Ntp1805
Rp1806
(dp1807
g10
g11
((dp1808
g440
I1
stp1809
Rp1810
sbsVdays
p1811
g0
(g5
g6
Ntp1812
Rp1813
(dp1814
g10
g11
((dp1815
Vways
p1816
I12
stp1817
Rp1818
sbsVfeed
p1819
g0
(g5
g6
Ntp1820
Rp1821
(dp1822
g10
g11
((dp1823
Vneed
p1824
I1
stp1825
Rp1826
sbsVgrade
p1827
g0
(g5
g6
Ntp1828
Rp1829
(dp1830
g10
g11
((dp1831
Vmaid
p1832
I1
sVmade
p1833
I1
stp1834
Rp1835
sbsVfeet
p1836
g0
(g5
g6
Ntp1837
Rp1838
(dp1839
g10
g11
((dp1840
Vstreet
p1841
I9
sVneat
p1842
I1
sVbeat
p1843
I3
sVsweet
p1844
I6
sVeat
p1845
I7
sVseat
p1846
I2
stp1847
Rp1848
sbsVhook
p1849
g0
(g5
g6
Ntp1850
Rp1851
(dp1852
g10
g11
((dp1853
Vbook
p1854
I1
stp1855
Rp1856
sbsVdone
p1857
g0
(g5
g6
Ntp1858
Rp1859
(dp1860
g10
g11
((dp1861
Vnone
p1862
I10
sVrun
p1863
I6
sVbegun
p1864
I2
sVfun
p1865
I7
sVsun
p1866
I21
sVson
p1867
I2
sVone
p1868
I7
stp1869
Rp1870
sbsg1679
g0
(g5
g6
Ntp1871
Rp1872
(dp1873
g10
g11
((dp1874
g1674
I1
stp1875
Rp1876
sbsVmoan
p1877
g0
(g5
g6
Ntp1878
Rp1879
(dp1880
g10
g11
((dp1881
Valone
p1882
I4
sVstone
p1883
I1
sVown
p1884
I1
sVgroan
p1885
I1
sVbone
p1886
I2
stp1887
Rp1888
sbsg1102
g0
(g5
g6
Ntp1889
Rp1890
(dp1891
g10
g11
((dp1892
g1097
I1
stp1893
Rp1894
sbsVtoy
p1895
g0
(g5
g6
Ntp1896
Rp1897
(dp1898
g10
g11
((dp1899
Vboy
p1900
I1
stp1901
Rp1902
sbsVfence
p1903
g0
(g5
g6
Ntp1904
Rp1905
(dp1906
g10
g11
((dp1907
Vsense
p1908
I13
stp1909
Rp1910
sbsVautomobile
p1911
g0
(g5
g6
Ntp1912
Rp1913
(dp1914
g10
g11
((dp1915
Vsteel
p1916
I1
stp1917
Rp1918
sbsVtop
p1919
g0
(g5
g6
Ntp1920
Rp1921
(dp1922
g10
g11
((dp1923
Vstop
p1924
I1
stp1925
Rp1926
sbsVgirls
p1927
g0
(g5
g6
Ntp1928
Rp1929
(dp1930
g10
g11
((dp1931
Vcurls
p1932
I1
stp1933
Rp1934
sbsg748
g0
(g5
g6
Ntp1935
Rp1936
(dp1937
g10
g11
((dp1938
g743
I1
stp1939
Rp1940
sbsVstation
p1941
g0
(g5
g6
Ntp1942
Rp1943
(dp1944
g10
g11
((dp1945
Vlocation
p1946
I1
stp1947
Rp1948
sbsVtoo
p1949
g0
(g5
g6
Ntp1950
Rp1951
(dp1952
g10
g11
((dp1953
Vblue
p1954
I1
sVdo
p1955
I101
sg1009
I4
sVtwo
p1956
I3
sVloo
p1957
I1
sVthrough
p1958
I4
sVlou
p1959
I1
sVyou
p1960
I61
sVtrue
p1961
I4
stp1962
Rp1963
sbsVcrow
p1964
g0
(g5
g6
Ntp1965
Rp1966
(dp1967
g10
g11
((dp1968
Vsnow
p1969
I1
stp1970
Rp1971
sbsVscheme
p1972
g0
(g5
g6
Ntp1973
Rp1974
(dp1975
g10
g11
((dp1976
Vcream
p1977
I1
stp1978
Rp1979
sbsg721
g0
(g5
g6
Ntp1980
Rp1981
(dp1982
g10
g11
((dp1983
Vfour
p1984
I2
sVdoor
p1985
I1
stp1986
Rp1987
sbsg1346
g0
(g5
g6
Ntp1988
Rp1989
(dp1990
g10
g11
((dp1991
Vdough
p1992
I1
stp1993
Rp1994
sbsg1460
g0
(g5
g6
Ntp1995
Rp1996
(dp1997
g10
g11
((dp1998
Vfool
p1999
I1
stp2000
Rp2001
sbsVfrowned
p2002
g0
(g5
g6
Ntp2003
Rp2004
(dp2005
g10
g11
((dp2006
Vround
p2007
I1
stp2008
Rp2009
sbsVpart
p2010
g0
(g5
g6
Ntp2011
Rp2012
(dp2013
g10
g11
((dp2014
Vheart
p2015
I19
sVstart
p2016
I2
stp2017
Rp2018
sbsVcrawl
p2019
g0
(g5
g6
Ntp2020
Rp2021
(dp2022
g10
g11
((dp2023
Vtall
p2024
I1
sVall
p2025
I1
sVstall
p2026
I3
sVfall
p2027
I1
stp2028
Rp2029
sbsVking
p2030
g0
(g5
g6
Ntp2031
Rp2032
(dp2033
g10
g11
((dp2034
Vthing
p2035
I2
sVswing
p2036
I1
stp2037
Rp2038
sbsVkind
p2039
g0
(g5
g6
Ntp2040
Rp2041
(dp2042
g10
g11
((dp2043
Vblind
p2044
I2
sVmind
p2045
I36
sVfind
p2046
I1
stp2047
Rp2048
sbsVtree
p2049
g0
(g5
g6
Ntp2050
Rp2051
(dp2052
g10
g11
((dp2053
Vme
p2054
I20
sVbe
p2055
I7
sVsee
p2056
I3
sVtennessee
p2057
I1
sVknee
p2058
I1
sVbee
p2059
I1
stp2060
Rp2061
sbsVgrey
p2062
g0
(g5
g6
Ntp2063
Rp2064
(dp2065
g10
g11
((dp2066
Vaway
p2067
I1
sVday
p2068
I1
sVway
p2069
I6
sVstay
p2070
I1
stp2071
Rp2072
sbsVyouth
p2073
g0
(g5
g6
Ntp2074
Rp2075
(dp2076
g10
g11
((dp2077
Vtruth
p2078
I1
stp2079
Rp2080
sbsVbride
p2081
g0
(g5
g6
Ntp2082
Rp2083
(dp2084
g10
g11
((dp2085
Vride
p2086
I1
stp2087
Rp2088
sbsVstall
p2089
g0
(g5
g6
Ntp2090
Rp2091
(dp2092
g10
g11
((dp2093
Vall
p2094
I5
sVwall
p2095
I3
sVsquall
p2096
I1
sVhaul
p2097
I4
sVcall
p2098
I1
sVfall
p2099
I4
sVtall
p2100
I2
sg2019
I3
sVhall
p2101
I5
stp2102
Rp2103
sbsVstale
p2104
g0
(g5
g6
Ntp2105
Rp2106
(dp2107
g10
g11
((dp2108
Vmail
p2109
I1
sVjail
p2110
I2
stp2111
Rp2112
sbsVrag
p2113
g0
(g5
g6
Ntp2114
Rp2115
(dp2116
g10
g11
((dp2117
Vdrag
p2118
I1
stp2119
Rp2120
sbsg1213
g0
(g5
g6
Ntp2121
Rp2122
(dp2123
g10
g11
((dp2124
Vthink
p2125
I1
stp2126
Rp2127
sbsVgals
p2128
g0
(g5
g6
Ntp2129
Rp2130
(dp2131
g10
g11
((dp2132
Vpals
p2133
I1
stp2134
Rp2135
sbsVmind
p2136
g0
(g5
g6
Ntp2137
Rp2138
(dp2139
g10
g11
((dp2140
Vblind
p2141
I5
sVkind
p2142
I36
sVunkind
p2143
I19
sVfind
p2144
I10
sVbehind
p2145
I19
sVgrind
p2146
I3
stp2147
Rp2148
sbsVmine
p2149
g0
(g5
g6
Ntp2150
Rp2151
(dp2152
g10
g11
((dp2153
Vshine
p2154
I2
sVdecline
p2155
I1
sg873
I11
sVfine
p2156
I16
sVline
p2157
I14
sVvine
p2158
I5
sg1282
I6
stp2159
Rp2160
sbsVjuice
p2161
g0
(g5
g6
Ntp2162
Rp2163
(dp2164
g10
g11
((dp2165
Vuse
p2166
I2
sVloose
p2167
I2
sg1666
I1
stp2168
Rp2169
sbsVseed
p2170
g0
(g5
g6
Ntp2171
Rp2172
(dp2173
g10
g11
((dp2174
Vneed
p2175
I1
stp2176
Rp2177
sbsVseen
p2178
g0
(g5
g6
Ntp2179
Rp2180
(dp2181
g10
g11
((dp2182
Vdeane
p2183
I1
sVscreen
p2184
I1
sVqueen
p2185
I2
sVlean
p2186
I1
sVmachine
p2187
I2
sVsubmarine
p2188
I2
sVgreen
p2189
I10
sVclean
p2190
I5
sVfifteen
p2191
I2
sVmean
p2192
I7
stp2193
Rp2194
sbsg584
g0
(g5
g6
Ntp2195
Rp2196
(dp2197
g10
g11
((dp2198
g579
I1
stp2199
Rp2200
sbsVray
p2201
g0
(g5
g6
Ntp2202
Rp2203
(dp2204
g10
g11
((dp2205
Vday
p2206
I1
stp2207
Rp2208
sbsVsell
p2209
g0
(g5
g6
Ntp2210
Rp2211
(dp2212
g10
g11
((dp2213
Vsmell
p2214
I1
stp2215
Rp2216
sbsVlie
p2217
g0
(g5
g6
Ntp2218
Rp2219
(dp2220
g10
g11
((dp2221
Vcry
p2222
I4
sVeye
p2223
I1
sVdie
p2224
I12
sg1017
I1
sVwhy
p2225
I1
sVby
p2226
I2
stp2227
Rp2228
sbsVlil
p2229
g0
(g5
g6
Ntp2230
Rp2231
(dp2232
g10
g11
((dp2233
Vstill
p2234
I1
stp2235
Rp2236
sbsVtrance
p2237
g0
(g5
g6
Ntp2238
Rp2239
(dp2240
g10
g11
((dp2241
Vadvance
p2242
I1
stp2243
Rp2244
sbsVself
p2245
g0
(g5
g6
Ntp2246
Rp2247
(dp2248
g10
g11
((dp2249
Vshelf
p2250
I2
stp2251
Rp2252
sbsVcave
p2253
g0
(g5
g6
Ntp2254
Rp2255
(dp2256
g10
g11
((dp2257
Vshave
p2258
I1
stp2259
Rp2260
sbsg989
g0
(g5
g6
Ntp2261
Rp2262
(dp2263
g10
g11
((dp2264
g984
I1
sVso
p2265
I1
sVknow
p2266
I1
sVgo
p2267
I9
sg1964
I1
sVbow
p2268
I1
stp2269
Rp2270
sbsVdoors
p2271
g0
(g5
g6
Ntp2272
Rp2273
(dp2274
g10
g11
((dp2275
Vfours
p2276
I1
stp2277
Rp2278
sbsVrides
p2279
g0
(g5
g6
Ntp2280
Rp2281
(dp2282
g10
g11
((dp2283
Vhides
p2284
I2
stp2285
Rp2286
sbsg266
g0
(g5
g6
Ntp2287
Rp2288
(dp2289
g10
g11
((dp2290
Vclothes
p2291
I1
stp2292
Rp2293
sbsVplay
p2294
g0
(g5
g6
Ntp2295
Rp2296
(dp2297
g10
g11
((dp2298
g1170
I1
sVway
p2299
I2
sVpray
p2300
I1
sVaway
p2301
I1
sVday
p2302
I2
sVtoday
p2303
I1
sVstay
p2304
I1
stp2305
Rp2306
sbsVpark
p2307
g0
(g5
g6
Ntp2308
Rp2309
(dp2310
g10
g11
((dp2311
Vdark
p2312
I2
stp2313
Rp2314
sbsVcigarette
p2315
g0
(g5
g6
Ntp2316
Rp2317
(dp2318
g10
g11
((dp2319
Vget
p2320
I1
stp2321
Rp2322
sbsVmouth
p2323
g0
(g5
g6
Ntp2324
Rp2325
(dp2326
g10
g11
((dp2327
Vsouth
p2328
I3
stp2329
Rp2330
sbsVplan
p2331
g0
(g5
g6
Ntp2332
Rp2333
(dp2334
g10
g11
((dp2335
Vman
p2336
I2
stp2337
Rp2338
sbsVletter
p2339
g0
(g5
g6
Ntp2340
Rp2341
(dp2342
g10
g11
((dp2343
Vbetter
p2344
I1
stp2345
Rp2346
sbsVgrave
p2347
g0
(g5
g6
Ntp2348
Rp2349
(dp2350
g10
g11
((dp2351
g324
I17
sVsave
p2352
I1
sVslave
p2353
I9
sVbehave
p2354
I3
stp2355
Rp2356
sbsg2183
g0
(g5
g6
Ntp2357
Rp2358
(dp2359
g10
g11
((dp2360
Vseen
p2361
I1
stp2362
Rp2363
sbsVbug
p2364
g0
(g5
g6
Ntp2365
Rp2366
(dp2367
g10
g11
((dp2368
Vjug
p2369
I1
stp2370
Rp2371
sbsVgrove
p2372
g0
(g5
g6
Ntp2373
Rp2374
(dp2375
g10
g11
((dp2376
Vrove
p2377
I1
stp2378
Rp2379
sbsg1636
g0
(g5
g6
Ntp2380
Rp2381
(dp2382
g10
g11
((dp2383
Vharm
p2384
I1
stp2385
Rp2386
sbsVcamp
p2387
g0
(g5
g6
Ntp2388
Rp2389
(dp2390
g10
g11
((dp2391
Vtramp
p2392
I1
sVdamp
p2393
I1
stp2394
Rp2395
sbsVdog
p2396
g0
(g5
g6
Ntp2397
Rp2398
(dp2399
g10
g11
((dp2400
Vlog
p2401
I11
stp2402
Rp2403
sbsVbarred
p2404
g0
(g5
g6
Ntp2405
Rp2406
(dp2407
g10
g11
((dp2408
Vhard
p2409
I2
sVyard
p2410
I8
sVlard
p2411
I1
stp2412
Rp2413
sbsVclean
p2414
g0
(g5
g6
Ntp2415
Rp2416
(dp2417
g10
g11
((dp2418
Vseen
p2419
I5
sVmean
p2420
I10
stp2421
Rp2422
sbsg1269
g0
(g5
g6
Ntp2423
Rp2424
(dp2425
g10
g11
((dp2426
g1264
I3
stp2427
Rp2428
sbsVhips
p2429
g0
(g5
g6
Ntp2430
Rp2431
(dp2432
g10
g11
((dp2433
Vlips
p2434
I2
stp2435
Rp2436
sbsVdespise
p2437
g0
(g5
g6
Ntp2438
Rp2439
(dp2440
g10
g11
((dp2441
Vlies
p2442
I1
sVeyes
p2443
I2
stp2444
Rp2445
sbsVgold
p2446
g0
(g5
g6
Ntp2447
Rp2448
(dp2449
g10
g11
((dp2450
Vcold
p2451
I4
sVold
p2452
I1
sVtold
p2453
I3
stp2454
Rp2455
sbsVqueen
p2456
g0
(g5
g6
Ntp2457
Rp2458
(dp2459
g10
g11
((dp2460
g2178
I2
sVgreen
p2461
I2
stp2462
Rp2463
sbsVdeuce
p2464
g0
(g5
g6
Ntp2465
Rp2466
(dp2467
g10
g11
((dp2468
Vloose
p2469
I2
stp2470
Rp2471
sbsg1426
g0
(g5
g6
Ntp2472
Rp2473
(dp2474
g10
g11
((dp2475
Vlate
p2476
I1
stp2477
Rp2478
sbsVearth
p2479
g0
(g5
g6
Ntp2480
Rp2481
(dp2482
g10
g11
((dp2483
Vbirth
p2484
I1
stp2485
Rp2486
sbsVfine
p2487
g0
(g5
g6
Ntp2488
Rp2489
(dp2490
g10
g11
((dp2491
Vnine
p2492
I5
sVspine
p2493
I1
sVline
p2494
I2
sVwine
p2495
I1
sVmine
p2496
I16
sVsign
p2497
I1
stp2498
Rp2499
sbsVfind
p2500
g0
(g5
g6
Ntp2501
Rp2502
(dp2503
g10
g11
((dp2504
Vblind
p2505
I2
sVbehind
p2506
I2
sVmind
p2507
I10
sVkind
p2508
I1
sVgrind
p2509
I1
stp2510
Rp2511
sbsVspite
p2512
g0
(g5
g6
Ntp2513
Rp2514
(dp2515
g10
g11
((dp2516
Vright
p2517
I1
stp2518
Rp2519
sbsVexplain
p2520
g0
(g5
g6
Ntp2521
Rp2522
(dp2523
g10
g11
((dp2524
Vinsane
p2525
I1
stp2526
Rp2527
sbsVbust
p2528
g0
(g5
g6
Ntp2529
Rp2530
(dp2531
g10
g11
((dp2532
Vtrust
p2533
I1
stp2534
Rp2535
sbsVrice
p2536
g0
(g5
g6
Ntp2537
Rp2538
(dp2539
g10
g11
((dp2540
Vtwice
p2541
I1
sVadvice
p2542
I2
sVice
p2543
I1
sVnice
p2544
I1
stp2545
Rp2546
sbsVplate
p2547
g0
(g5
g6
Ntp2548
Rp2549
(dp2550
g10
g11
((dp2551
Vkate
p2552
I1
stp2553
Rp2554
sbsVhit
p2555
g0
(g5
g6
Ntp2556
Rp2557
(dp2558
g10
g11
((dp2559
Vquit
p2560
I2
stp2561
Rp2562
sbsVstop
p2563
g0
(g5
g6
Ntp2564
Rp2565
(dp2566
g10
g11
((dp2567
Vshop
p2568
I1
sg1919
I1
sVdrop
p2569
I1
sg1060
I1
stp2570
Rp2571
sbsVtrees
p2572
g0
(g5
g6
Ntp2573
Rp2574
(dp2575
g10
g11
((dp2576
Vease
p2577
I1
stp2578
Rp2579
sbsVcoast
p2580
g0
(g5
g6
Ntp2581
Rp2582
(dp2583
g10
g11
((dp2584
Vboast
p2585
I1
stp2586
Rp2587
sbsVhid
p2588
g0
(g5
g6
Ntp2589
Rp2590
(dp2591
g10
g11
((dp2592
Vdid
p2593
I1
sVkid
p2594
I6
stp2595
Rp2596
sbsVbreast
p2597
g0
(g5
g6
Ntp2598
Rp2599
(dp2600
g10
g11
((dp2601
Vwest
p2602
I1
sVrest
p2603
I8
stp2604
Rp2605
sbsVhim
p2606
g0
(g5
g6
Ntp2607
Rp2608
(dp2609
g10
g11
((dp2610
Vlimb
p2611
I1
sVswim
p2612
I1
stp2613
Rp2614
sbsVbat
p2615
g0
(g5
g6
Ntp2616
Rp2617
(dp2618
g10
g11
((dp2619
Vthat
p2620
I1
stp2621
Rp2622
sbsVsleeve
p2623
g0
(g5
g6
Ntp2624
Rp2625
(dp2626
g10
g11
((dp2627
Veve
p2628
I1
stp2629
Rp2630
sbsVcry
p2631
g0
(g5
g6
Ntp2632
Rp2633
(dp2634
g10
g11
((dp2635
Vdry
p2636
I1
sVlie
p2637
I4
sVeye
p2638
I3
sVdie
p2639
I17
sVsky
p2640
I1
sVby
p2641
I3
sVhigh
p2642
I5
sVfly
p2643
I1
sVgoodbye
p2644
I8
sg901
I1
sVwhy
p2645
I3
stp2646
Rp2647
sbsVbay
p2648
g0
(g5
g6
Ntp2649
Rp2650
(dp2651
g10
g11
((dp2652
Vway
p2653
I1
stp2654
Rp2655
sbsg2541
g0
(g5
g6
Ntp2656
Rp2657
(dp2658
g10
g11
((dp2659
Vprice
p2660
I3
sVrice
p2661
I1
sVadvice
p2662
I2
sVnice
p2663
I2
stp2664
Rp2665
sbsVbad
p2666
g0
(g5
g6
Ntp2667
Rp2668
(dp2669
g10
g11
((dp2670
Vlad
p2671
I1
sVdad
p2672
I1
sVhad
p2673
I34
sVmad
p2674
I3
sVsad
p2675
I6
stp2676
Rp2677
sbsVgears
p2678
g0
(g5
g6
Ntp2679
Rp2680
(dp2681
g10
g11
((dp2682
Vyears
p2683
I2
stp2684
Rp2685
sbsVsteak
p2686
g0
(g5
g6
Ntp2687
Rp2688
(dp2689
g10
g11
((dp2690
Vtake
p2691
I1
sVmistake
p2692
I1
stp2693
Rp2694
sbsVsteal
p2695
g0
(g5
g6
Ntp2696
Rp2697
(dp2698
g10
g11
((dp2699
Vfeel
p2700
I4
sVbeale
p2701
I1
sVmeal
p2702
I2
sg1438
I1
stp2703
Rp2704
sbsVscrubbed
p2705
g0
(g5
g6
Ntp2706
Rp2707
(dp2708
g10
g11
((dp2709
Vrubbed
p2710
I1
stp2711
Rp2712
sbsg2525
g0
(g5
g6
Ntp2713
Rp2714
(dp2715
g10
g11
((dp2716
g2520
I1
stp2717
Rp2718
sbsVstump
p2719
g0
(g5
g6
Ntp2720
Rp2721
(dp2722
g10
g11
((dp2723
Vlump
p2724
I2
stp2725
Rp2726
sbsg356
g0
(g5
g6
Ntp2727
Rp2728
(dp2729
g10
g11
((dp2730
Vair
p2731
I1
sVthere
p2732
I1
sVsquare
p2733
I1
sVcare
p2734
I1
stp2735
Rp2736
sbsg2158
g0
(g5
g6
Ntp2737
Rp2738
(dp2739
g10
g11
((dp2740
Vmine
p2741
I5
stp2742
Rp2743
sbsVtouch
p2744
g0
(g5
g6
Ntp2745
Rp2746
(dp2747
g10
g11
((dp2748
Vmuch
p2749
I2
stp2750
Rp2751
sbsVsee
p2752
g0
(g5
g6
Ntp2753
Rp2754
(dp2755
g10
g11
((dp2756
Vme
p2757
I69
sVbe
p2758
I12
sVkey
p2759
I1
sVknee
p2760
I2
sVtree
p2761
I3
sVthree
p2762
I1
sVguarantee
p2763
I1
stp2764
Rp2765
sbsVfull
p2766
g0
(g5
g6
Ntp2767
Rp2768
(dp2769
g10
g11
((dp2770
Vbull
p2771
I1
stp2772
Rp2773
sbsVdumb
p2774
g0
(g5
g6
Ntp2775
Rp2776
(dp2777
g10
g11
((dp2778
Vbum
p2779
I1
stp2780
Rp2781
sbsg158
g0
(g5
g6
Ntp2782
Rp2783
(dp2784
g10
g11
((dp2785
g152
I1
stp2786
Rp2787
sbsVsea
p2788
g0
(g5
g6
Ntp2789
Rp2790
(dp2791
g10
g11
((dp2792
Vme
p2793
I59
sVbe
p2794
I2
sVthee
p2795
I1
sVbee
p2796
I1
stp2797
Rp2798
sbsg1499
g0
(g5
g6
Ntp2799
Rp2800
(dp2801
g10
g11
((dp2802
Vtrail
p2803
I1
sVjail
p2804
I1
stp2805
Rp2806
sbsVbark
p2807
g0
(g5
g6
Ntp2808
Rp2809
(dp2810
g10
g11
((dp2811
Vdark
p2812
I5
stp2813
Rp2814
sbsg1637
g0
(g5
g6
Ntp2815
Rp2816
(dp2817
g10
g11
((dp2818
g1630
I2
stp2819
Rp2820
sbsVbest
p2821
g0
(g5
g6
Ntp2822
Rp2823
(dp2824
g10
g11
((dp2825
Vtest
p2826
I3
sVwest
p2827
I5
sVnest
p2828
I1
sVblessed
p2829
I1
sVrest
p2830
I6
stp2831
Rp2832
sbsg339
g0
(g5
g6
Ntp2833
Rp2834
(dp2835
g10
g11
((dp2836
Vstreet
p2837
I2
stp2838
Rp2839
sbsVknees
p2840
g0
(g5
g6
Ntp2841
Rp2842
(dp2843
g10
g11
((dp2844
Vcheese
p2845
I1
sVease
p2846
I1
sVplease
p2847
I28
sVfreeze
p2848
I1
stp2849
Rp2850
sbsVsaid
p2851
g0
(g5
g6
Ntp2852
Rp2853
(dp2854
g10
g11
((dp2855
Vbed
p2856
I13
sVhead
p2857
I2
sVred
p2858
I1
sVdead
p2859
I5
stp2860
Rp2861
sbsg1043
g0
(g5
g6
Ntp2862
Rp2863
(dp2864
g10
g11
((dp2865
Vhow
p2866
I1
sVnow
p2867
I1
stp2868
Rp2869
sbsVsail
p2870
g0
(g5
g6
Ntp2871
Rp2872
(dp2873
g10
g11
((dp2874
Vtale
p2875
I1
sVmail
p2876
I1
stp2877
Rp2878
sbsVplease
p2879
g0
(g5
g6
Ntp2880
Rp2881
(dp2882
g10
g11
((dp2883
Vknees
p2884
I28
sVcheese
p2885
I1
sVthese
p2886
I1
sVease
p2887
I10
sVdisease
p2888
I2
sVfreeze
p2889
I1
stp2890
Rp2891
sbsVmud
p2892
g0
(g5
g6
Ntp2893
Rp2894
(dp2895
g10
g11
((dp2896
Vbud
p2897
I1
stp2898
Rp2899
sbsg1525
g0
(g5
g6
Ntp2900
Rp2901
(dp2902
g10
g11
((dp2903
Vnone
p2904
I1
sVone
p2905
I1
stp2906
Rp2907
sbsVmum
p2908
g0
(g5
g6
Ntp2909
Rp2910
(dp2911
g10
g11
((dp2912
Vthumb
p2913
I1
stp2914
Rp2915
sbsVloose
p2916
g0
(g5
g6
Ntp2917
Rp2918
(dp2919
g10
g11
((dp2920
Vgoose
p2921
I1
sg2161
I2
sVuse
p2922
I1
sg2464
I2
sg735
I2
stp2923
Rp2924
sbsg476
g0
(g5
g6
Ntp2925
Rp2926
(dp2927
g10
g11
((dp2928
Vcold
p2929
I1
sVtold
p2930
I1
stp2931
Rp2932
sbsVweak
p2933
g0
(g5
g6
Ntp2934
Rp2935
(dp2936
g10
g11
((dp2937
Vleak
p2938
I1
stp2939
Rp2940
sbsVboss
p2941
g0
(g5
g6
Ntp2942
Rp2943
(dp2944
g10
g11
((dp2945
Vcross
p2946
I1
sVmoss
p2947
I1
stp2948
Rp2949
sbsVwear
p2950
g0
(g5
g6
Ntp2951
Rp2952
(dp2953
g10
g11
((dp2954
Vthere
p2955
I1
stp2956
Rp2957
sbsVnews
p2958
g0
(g5
g6
Ntp2959
Rp2960
(dp2961
g10
g11
((dp2962
Vblues
p2963
I25
sVshoes
p2964
I2
sVchoose
p2965
I2
sVlose
p2966
I1
stp2967
Rp2968
sbsVaim
p2969
g0
(g5
g6
Ntp2970
Rp2971
(dp2972
g10
g11
((dp2973
Vframe
p2974
I1
sVsame
p2975
I1
stp2976
Rp2977
sbsVpity
p2978
g0
(g5
g6
Ntp2979
Rp2980
(dp2981
g10
g11
((dp2982
Vcity
p2983
I1
stp2984
Rp2985
sbsVc
p2986
g0
(g5
g6
Ntp2987
Rp2988
(dp2989
g10
g11
((dp2990
Vt
p2991
I1
stp2992
Rp2993
sbsVlast
p2994
g0
(g5
g6
Ntp2995
Rp2996
(dp2997
g10
g11
((dp2998
Vpast
p2999
I4
sVfast
p3000
I7
stp3001
Rp3002
sbsVcow
p3003
g0
(g5
g6
Ntp3004
Rp3005
(dp3006
g10
g11
((dp3007
Vhow
p3008
I3
sVnow
p3009
I1
stp3010
Rp3011
sbsVfault
p3012
g0
(g5
g6
Ntp3013
Rp3014
(dp3015
g10
g11
((dp3016
Vsalt
p3017
I1
stp3018
Rp3019
sbsg102
g0
(g5
g6
Ntp3020
Rp3021
(dp3022
g10
g11
((dp3023
Vto
p3024
I1
sVyou
p3025
I1
stp3026
Rp3027
sbsVload
p3028
g0
(g5
g6
Ntp3029
Rp3030
(dp3031
g10
g11
((dp3032
Vtoad
p3033
I1
sVroad
p3034
I6
stp3035
Rp3036
sbsVflies
p3037
g0
(g5
g6
Ntp3038
Rp3039
(dp3040
g10
g11
((dp3041
Veyes
p3042
I1
stp3043
Rp3044
sbsVtough
p3045
g0
(g5
g6
Ntp3046
Rp3047
(dp3048
g10
g11
((dp3049
Vsnuff
p3050
I1
sVrough
p3051
I5
sVstuff
p3052
I5
stp3053
Rp3054
sbsVpoint
p3055
g0
(g5
g6
Ntp3056
Rp3057
(dp3058
g10
g11
((dp3059
Vjoint
p3060
I1
stp3061
Rp3062
sbsVsweet
p3063
g0
(g5
g6
Ntp3064
Rp3065
(dp3066
g10
g11
((dp3067
Vfeet
p3068
I6
sVheat
p3069
I2
sg334
I2
sVbeat
p3070
I4
sVmeet
p3071
I2
sVeat
p3072
I1
sVseat
p3073
I1
stp3074
Rp3075
sbsVvain
p3076
g0
(g5
g6
Ntp3077
Rp3078
(dp3079
g10
g11
((dp3080
Vtrain
p3081
I1
sVpain
p3082
I1
sVchain
p3083
I1
stp3084
Rp3085
sbsVtennessee
p3086
g0
(g5
g6
Ntp3087
Rp3088
(dp3089
g10
g11
((dp3090
Vme
p3091
I46
sVbe
p3092
I8
sg1720
I1
sg828
I3
sVtree
p3093
I1
sVthree
p3094
I1
sVfree
p3095
I2
stp3096
Rp3097
sbsVrave
p3098
g0
(g5
g6
Ntp3099
Rp3100
(dp3101
g10
g11
((dp3102
Vcrave
p3103
I1
sVbehave
p3104
I1
stp3105
Rp3106
sbsg1645
g0
(g5
g6
Ntp3107
Rp3108
(dp3109
g10
g11
((dp3110
g1640
I1
stp3111
Rp3112
sbsVtrust
p3113
g0
(g5
g6
Ntp3114
Rp3115
(dp3116
g10
g11
((dp3117
Vdust
p3118
I2
sg2528
I1
stp3119
Rp3120
sbsVspeak
p3121
g0
(g5
g6
Ntp3122
Rp3123
(dp3124
g10
g11
((dp3125
Vweek
p3126
I1
sVcheek
p3127
I1
stp3128
Rp3129
sbsg2155
g0
(g5
g6
Ntp3130
Rp3131
(dp3132
g10
g11
((dp3133
Vmine
p3134
I1
stp3135
Rp3136
sbsVdum
p3137
g0
(g5
g6
Ntp3138
Rp3139
(dp3140
g10
g11
((dp3141
Vdrum
p3142
I1
stp3143
Rp3144
sbsVstamp
p3145
g0
(g5
g6
Ntp3146
Rp3147
(dp3148
g10
g11
((dp3149
Vtramp
p3150
I1
stp3151
Rp3152
sbsVdub
p3153
g0
(g5
g6
Ntp3154
Rp3155
(dp3156
g10
g11
((dp3157
Vtub
p3158
I3
stp3159
Rp3160
sbsVfro
p3161
g0
(g5
g6
Ntp3162
Rp3163
(dp3164
g10
g11
((dp3165
Vgo
p3166
I1
sVknow
p3167
I1
stp3168
Rp3169
sbsVdue
p3170
g0
(g5
g6
Ntp3171
Rp3172
(dp3173
g10
g11
((dp3174
Vdo
p3175
I1
stp3176
Rp3177
sbsVbeen
p3178
g0
(g5
g6
Ntp3179
Rp3180
(dp3181
g10
g11
((dp3182
Vgin
p3183
I2
sVin
p3184
I7
stp3185
Rp3186
sbsg1622
g0
(g5
g6
Ntp3187
Rp3188
(dp3189
g10
g11
((dp3190
Vseen
p3191
I2
sVmean
p3192
I1
stp3193
Rp3194
sbsVbeer
p3195
g0
(g5
g6
Ntp3196
Rp3197
(dp3198
g10
g11
((dp3199
Vyear
p3200
I2
stp3201
Rp3202
sbsVpa
p3203
g0
(g5
g6
Ntp3204
Rp3205
(dp3206
g10
g11
((dp3207
Vma
p3208
I2
stp3209
Rp3210
sbsVboard
p3211
g0
(g5
g6
Ntp3212
Rp3213
(dp3214
g10
g11
((dp3215
Vford
p3216
I2
stp3217
Rp3218
sbsVlife
p3219
g0
(g5
g6
Ntp3220
Rp3221
(dp3222
g10
g11
((dp3223
Vknife
p3224
I1
sVwife
p3225
I18
stp3226
Rp3227
sbsVflight
p3228
g0
(g5
g6
Ntp3229
Rp3230
(dp3231
g10
g11
((dp3232
Vnight
p3233
I1
stp3234
Rp3235
sbsVgay
p3236
g0
(g5
g6
Ntp3237
Rp3238
(dp3239
g10
g11
((dp3240
Vway
p3241
I2
stp3242
Rp3243
sbsVcrack
p3244
g0
(g5
g6
Ntp3245
Rp3246
(dp3247
g10
g11
((dp3248
Vback
p3249
I2
stp3250
Rp3251
sbsVgas
p3252
g0
(g5
g6
Ntp3253
Rp3254
(dp3255
g10
g11
((dp3256
Vgrass
p3257
I1
stp3258
Rp3259
sbsVgal
p3260
g0
(g5
g6
Ntp3261
Rp3262
(dp3263
g10
g11
((dp3264
Vpal
p3265
I1
sVsal
p3266
I2
stp3267
Rp3268
sbsVawake
p3269
g0
(g5
g6
Ntp3270
Rp3271
(dp3272
g10
g11
((dp3273
Vcake
p3274
I1
stp3275
Rp3276
sbsg922
g0
(g5
g6
Ntp3277
Rp3278
(dp3279
g10
g11
((dp3280
g917
I1
stp3281
Rp3282
sbsVchild
p3283
g0
(g5
g6
Ntp3284
Rp3285
(dp3286
g10
g11
((dp3287
Vwild
p3288
I13
stp3289
Rp3290
sbsg387
g0
(g5
g6
Ntp3291
Rp3292
(dp3293
g10
g11
((dp3294
Vwill
p3295
I2
stp3296
Rp3297
sbsVloon
p3298
g0
(g5
g6
Ntp3299
Rp3300
(dp3301
g10
g11
((dp3302
Vtune
p3303
I1
stp3304
Rp3305
sbsVhas
p3306
g0
(g5
g6
Ntp3307
Rp3308
(dp3309
g10
g11
((dp3310
Vjazz
p3311
I1
stp3312
Rp3313
sbsg1249
g0
(g5
g6
Ntp3314
Rp3315
(dp3316
g10
g11
((dp3317
Vbuy
p3318
I1
sVpie
p3319
I1
sVgoodbye
p3320
I1
sVwhy
p3321
I1
stp3322
Rp3323
sbsg1422
g0
(g5
g6
Ntp3324
Rp3325
(dp3326
g10
g11
((dp3327
Vlate
p3328
I1
sVeight
p3329
I1
stp3330
Rp3331
sbsVbill
p3332
g0
(g5
g6
Ntp3333
Rp3334
(dp3335
g10
g11
((dp3336
Vwill
p3337
I6
sVhill
p3338
I2
stp3339
Rp3340
sbsg506
g0
(g5
g6
Ntp3341
Rp3342
(dp3343
g10
g11
((dp3344
Vagain
p3345
I3
sVmen
p3346
I1
stp3347
Rp3348
sbsVadmire
p3349
g0
(g5
g6
Ntp3350
Rp3351
(dp3352
g10
g11
((dp3353
Vrequire
p3354
I2
stp3355
Rp3356
sbsVnear
p3357
g0
(g5
g6
Ntp3358
Rp3359
(dp3360
g10
g11
((dp3361
Vear
p3362
I1
sVyear
p3363
I2
stp3364
Rp3365
sbsg1842
g0
(g5
g6
Ntp3366
Rp3367
(dp3368
g10
g11
((dp3369
Vfeet
p3370
I1
stp3371
Rp3372
sbsg840
g0
(g5
g6
Ntp3373
Rp3374
(dp3375
g10
g11
((dp3376
g833
I1
sVrun
p3377
I6
sVdone
p3378
I7
sVsun
p3379
I2
sVgun
p3380
I3
sVone
p3381
I8
stp3382
Rp3383
sbsg1152
g0
(g5
g6
Ntp3384
Rp3385
(dp3386
g10
g11
((dp3387
g1147
I1
sg1162
I1
stp3388
Rp3389
sbsg1603
g0
(g5
g6
Ntp3390
Rp3391
(dp3392
g10
g11
((dp3393
Vside
p3394
I1
stp3395
Rp3396
sbsg2692
g0
(g5
g6
Ntp3397
Rp3398
(dp3399
g10
g11
((dp3400
g2686
I1
sVlake
p3401
I1
stp3402
Rp3403
sbsVgrip
p3404
g0
(g5
g6
Ntp3405
Rp3406
(dp3407
g10
g11
((dp3408
Vtrip
p3409
I1
sVzip
p3410
I2
stp3411
Rp3412
sbsVseven
p3413
g0
(g5
g6
Ntp3414
Rp3415
(dp3416
g10
g11
((dp3417
Vheaven
p3418
I3
stp3419
Rp3420
sbsVcane
p3421
g0
(g5
g6
Ntp3422
Rp3423
(dp3424
g10
g11
((dp3425
Vtrain
p3426
I1
stp3427
Rp3428
sbsVit
p3429
g0
(g5
g6
Ntp3430
Rp3431
(dp3432
g10
g11
((dp3433
Vquit
p3434
I2
sVget
p3435
I1
stp3436
Rp3437
sbsg2628
g0
(g5
g6
Ntp3438
Rp3439
(dp3440
g10
g11
((dp3441
g2623
I1
stp3442
Rp3443
sbsVshame
p3444
g0
(g5
g6
Ntp3445
Rp3446
(dp3447
g10
g11
((dp3448
Vblame
p3449
I1
sVname
p3450
I6
stp3451
Rp3452
sbsVvow
p3453
g0
(g5
g6
Ntp3454
Rp3455
(dp3456
g10
g11
((dp3457
Vnow
p3458
I2
stp3459
Rp3460
sbsVin
p3461
g0
(g5
g6
Ntp3462
Rp3463
(dp3464
g10
g11
((dp3465
Vchin
p3466
I3
sVthin
p3467
I1
sVgin
p3468
I12
sVwin
p3469
I1
sVsin
p3470
I2
sVbeen
p3471
I7
stp3472
Rp3473
sbsVmouse
p3474
g0
(g5
g6
Ntp3475
Rp3476
(dp3477
g10
g11
((dp3478
Vhouse
p3479
I2
sg933
I1
stp3480
Rp3481
sbsVfrown
p3482
g0
(g5
g6
Ntp3483
Rp3484
(dp3485
g10
g11
((dp3486
Vtown
p3487
I2
sVdown
p3488
I1
stp3489
Rp3490
sbsVfunny
p3491
g0
(g5
g6
Ntp3492
Rp3493
(dp3494
g10
g11
((dp3495
Vhoney
p3496
I5
stp3497
Rp3498
sbsg1781
g0
(g5
g6
Ntp3499
Rp3500
(dp3501
g10
g11
((dp3502
Vdirt
p3503
I1
stp3504
Rp3505
sbsVanymore
p3506
g0
(g5
g6
Ntp3507
Rp3508
(dp3509
g10
g11
((dp3510
Vdoor
p3511
I5
sg1361
I3
stp3512
Rp3513
sbsVthings
p3514
g0
(g5
g6
Ntp3515
Rp3516
(dp3517
g10
g11
((dp3518
Vsings
p3519
I1
stp3520
Rp3521
sbsVmake
p3522
g0
(g5
g6
Ntp3523
Rp3524
(dp3525
g10
g11
((dp3526
g1506
I1
sVstake
p3527
I2
sVsnake
p3528
I1
stp3529
Rp3530
sbsVbelong
p3531
g0
(g5
g6
Ntp3532
Rp3533
(dp3534
g10
g11
((dp3535
Vlong
p3536
I2
stp3537
Rp3538
sbsVrules
p3539
g0
(g5
g6
Ntp3540
Rp3541
(dp3542
g10
g11
((dp3543
Vfools
p3544
I1
stp3545
Rp3546
sbsVgrand
p3547
g0
(g5
g6
Ntp3548
Rp3549
(dp3550
g10
g11
((dp3551
Vland
p3552
I1
sVhand
p3553
I1
stp3554
Rp3555
sbsg1436
g0
(g5
g6
Ntp3556
Rp3557
(dp3558
g10
g11
((dp3559
Vfeel
p3560
I2
stp3561
Rp3562
sbsVdime
p3563
g0
(g5
g6
Ntp3564
Rp3565
(dp3566
g10
g11
((dp3567
Vtime
p3568
I24
stp3569
Rp3570
sbsg1355
g0
(g5
g6
Ntp3571
Rp3572
(dp3573
g10
g11
((dp3574
Vhell
p3575
I2
stp3576
Rp3577
sbsg111
g0
(g5
g6
Ntp3578
Rp3579
(dp3580
g10
g11
((dp3581
Vtail
p3582
I3
sVjail
p3583
I1
stp3584
Rp3585
sbsVrain
p3586
g0
(g5
g6
Ntp3587
Rp3588
(dp3589
g10
g11
((dp3590
Vagain
p3591
I2
sVtrain
p3592
I9
sVpain
p3593
I1
sVgrain
p3594
I1
sVmane
p3595
I1
stp3596
Rp3597
sbsVhand
p3598
g0
(g5
g6
Ntp3599
Rp3600
(dp3601
g10
g11
((dp3602
Vsand
p3603
I3
sVland
p3604
I10
sVcommand
p3605
I1
sVstand
p3606
I2
sVgrand
p3607
I1
sVunderstand
p3608
I8
stp3609
Rp3610
sbsg3303
g0
(g5
g6
Ntp3611
Rp3612
(dp3613
g10
g11
((dp3614
g3298
I1
stp3615
Rp3616
sbsg2594
g0
(g5
g6
Ntp3617
Rp3618
(dp3619
g10
g11
((dp3620
Vhid
p3621
I6
stp3622
Rp3623
sbsg3127
g0
(g5
g6
Ntp3624
Rp3625
(dp3626
g10
g11
((dp3627
Vspeak
p3628
I1
stp3629
Rp3630
sbsVgrind
p3631
g0
(g5
g6
Ntp3632
Rp3633
(dp3634
g10
g11
((dp3635
Vbehind
p3636
I1
sVmind
p3637
I3
sVfind
p3638
I1
stp3639
Rp3640
sbsVrome
p3641
g0
(g5
g6
Ntp3642
Rp3643
(dp3644
g10
g11
((dp3645
Vhome
p3646
I2
stp3647
Rp3648
sbsVhowl
p3649
g0
(g5
g6
Ntp3650
Rp3651
(dp3652
g10
g11
((dp3653
Vprowl
p3654
I2
stp3655
Rp3656
sbsVtelegram
p3657
g0
(g5
g6
Ntp3658
Rp3659
(dp3660
g10
g11
((dp3661
Vbirmingham
p3662
I2
stp3663
Rp3664
sbsg3662
g0
(g5
g6
Ntp3665
Rp3666
(dp3667
g10
g11
((dp3668
g3657
I2
stp3669
Rp3670
sbsVcabaret
p3671
g0
(g5
g6
Ntp3672
Rp3673
(dp3674
g10
g11
((dp3675
Vaway
p3676
I1
stp3677
Rp3678
sbsVyet
p3679
g0
(g5
g6
Ntp3680
Rp3681
(dp3682
g10
g11
((dp3683
Vcalumet
p3684
I1
sVwet
p3685
I3
sVforget
p3686
I1
sVbet
p3687
I1
sVregret
p3688
I2
stp3689
Rp3690
sbsVsnout
p3691
g0
(g5
g6
Ntp3692
Rp3693
(dp3694
g10
g11
((dp3695
Vstout
p3696
I1
stp3697
Rp3698
sbsVham
p3699
g0
(g5
g6
Ntp3700
Rp3701
(dp3702
g10
g11
((dp3703
Vtam
p3704
I1
stp3705
Rp3706
sbsVcup
p3707
g0
(g5
g6
Ntp3708
Rp3709
(dp3710
g10
g11
((dp3711
Vup
p3712
I3
stp3713
Rp3714
sbsVease
p3715
g0
(g5
g6
Ntp3716
Rp3717
(dp3718
g10
g11
((dp3719
Vknees
p3720
I1
sVplease
p3721
I10
sg2572
I1
stp3722
Rp3723
sbsVhad
p3724
g0
(g5
g6
Ntp3725
Rp3726
(dp3727
g10
g11
((dp3728
Vbad
p3729
I34
sVmad
p3730
I14
sVsad
p3731
I8
stp3732
Rp3733
sbsVhay
p3734
g0
(g5
g6
Ntp3735
Rp3736
(dp3737
g10
g11
((dp3738
Vpay
p3739
I1
sVsay
p3740
I1
sg1293
I2
sVday
p3741
I1
stp3742
Rp3743
sbsVshout
p3744
g0
(g5
g6
Ntp3745
Rp3746
(dp3747
g10
g11
((dp3748
Vabout
p3749
I3
sVout
p3750
I11
stp3751
Rp3752
sbsVspread
p3753
g0
(g5
g6
Ntp3754
Rp3755
(dp3756
g10
g11
((dp3757
Vhead
p3758
I1
sVbed
p3759
I2
stp3760
Rp3761
sbsg1946
g0
(g5
g6
Ntp3762
Rp3763
(dp3764
g10
g11
((dp3765
g1941
I1
stp3766
Rp3767
sbsVcrying
p3768
g0
(g5
g6
Ntp3769
Rp3770
(dp3771
g10
g11
((dp3772
Vflying
p3773
I2
sVdying
p3774
I5
stp3775
Rp3776
sbsg330
g0
(g5
g6
Ntp3777
Rp3778
(dp3779
g10
g11
((dp3780
Vcrave
p3781
I1
sVgrave
p3782
I1
stp3783
Rp3784
sbsVhat
p3785
g0
(g5
g6
Ntp3786
Rp3787
(dp3788
g10
g11
((dp3789
g693
I1
sVpat
p3790
I1
sVat
p3791
I6
sVthat
p3792
I1
stp3793
Rp3794
sbsVhaw
p3795
g0
(g5
g6
Ntp3796
Rp3797
(dp3798
g10
g11
((dp3799
Vjaw
p3800
I1
stp3801
Rp3802
sbsVbin
p3803
g0
(g5
g6
Ntp3804
Rp3805
(dp3806
g10
g11
((dp3807
Vsin
p3808
I1
stp3809
Rp3810
sbsVgame
p3811
g0
(g5
g6
Ntp3812
Rp3813
(dp3814
g10
g11
((dp3815
Vname
p3816
I2
sVsame
p3817
I2
stp3818
Rp3819
sbsg2484
g0
(g5
g6
Ntp3820
Rp3821
(dp3822
g10
g11
((dp3823
g2479
I1
stp3824
Rp3825
sbsVapart
p3826
g0
(g5
g6
Ntp3827
Rp3828
(dp3829
g10
g11
((dp3830
Vheart
p3831
I8
stp3832
Rp3833
sbsg2493
g0
(g5
g6
Ntp3834
Rp3835
(dp3836
g10
g11
((dp3837
Vfine
p3838
I1
stp3839
Rp3840
sbsVmisled
p3841
g0
(g5
g6
Ntp3842
Rp3843
(dp3844
g10
g11
((dp3845
Vbed
p3846
I1
stp3847
Rp3848
sbsVnight
p3849
g0
(g5
g6
Ntp3850
Rp3851
(dp3852
g10
g11
((dp3853
Vright
p3854
I139
sg3228
I1
sVlight
p3855
I4
sVbite
p3856
I3
sVfight
p3857
I18
sVtonight
p3858
I3
sVtight
p3859
I12
sVbright
p3860
I7
sVsight
p3861
I3
sVwhite
p3862
I1
sVmight
p3863
I1
stp3864
Rp3865
sbsVright
p3866
g0
(g5
g6
Ntp3867
Rp3868
(dp3869
g10
g11
((dp3870
Vkite
p3871
I1
sg2512
I1
sVlight
p3872
I5
sVbite
p3873
I3
sVfight
p3874
I9
sVtonight
p3875
I13
sVtight
p3876
I12
sVsight
p3877
I5
sVnight
p3878
I139
sVwhite
p3879
I2
sg1444
I1
stp3880
Rp3881
sbsVold
p3882
g0
(g5
g6
Ntp3883
Rp3884
(dp3885
g10
g11
((dp3886
Vcold
p3887
I2
sVbold
p3888
I1
sVgold
p3889
I1
sVtold
p3890
I3
stp3891
Rp3892
sbsVcrowd
p3893
g0
(g5
g6
Ntp3894
Rp3895
(dp3896
g10
g11
((dp3897
Vallowed
p3898
I1
stp3899
Rp3900
sbsVspring
p3901
g0
(g5
g6
Ntp3902
Rp3903
(dp3904
g10
g11
((dp3905
Vsing
p3906
I1
sVring
p3907
I2
stp3908
Rp3909
sbsg2133
g0
(g5
g6
Ntp3910
Rp3911
(dp3912
g10
g11
((dp3913
g2128
I1
stp3914
Rp3915
sbsVsome
p3916
g0
(g5
g6
Ntp3917
Rp3918
(dp3919
g10
g11
((dp3920
Vcome
p3921
I3
stp3922
Rp3923
sbsVback
p3924
g0
(g5
g6
Ntp3925
Rp3926
(dp3927
g10
g11
((dp3928
Vslack
p3929
I1
sVtrack
p3930
I14
sVcrack
p3931
I2
sVsack
p3932
I8
sVshack
p3933
I2
sVblack
p3934
I8
sVjack
p3935
I12
sVhack
p3936
I1
stp3937
Rp3938
sbsVdead
p3939
g0
(g5
g6
Ntp3940
Rp3941
(dp3942
g10
g11
((dp3943
Vhead
p3944
I30
sVsaid
p3945
I5
sVahead
p3946
I1
sVlead
p3947
I1
sVread
p3948
I12
sVbed
p3949
I20
sVred
p3950
I8
sVbread
p3951
I1
stp3952
Rp3953
sbsg1481
g0
(g5
g6
Ntp3954
Rp3955
(dp3956
g10
g11
((dp3957
Vgood
p3958
I2
stp3959
Rp3960
sbsVlips
p3961
g0
(g5
g6
Ntp3962
Rp3963
(dp3964
g10
g11
((dp3965
Vhips
p3966
I2
stp3967
Rp3968
sbsg3877
g0
(g5
g6
Ntp3969
Rp3970
(dp3971
g10
g11
((dp3972
Vtonight
p3973
I1
sVtight
p3974
I1
sVright
p3975
I5
sVmight
p3976
I1
sVnight
p3977
I3
stp3978
Rp3979
sbsg68
g0
(g5
g6
Ntp3980
Rp3981
(dp3982
g10
g11
((dp3983
Vsleep
p3984
I10
sVasleep
p3985
I1
sVheap
p3986
I1
stp3987
Rp3988
sbsg684
g0
(g5
g6
Ntp3989
Rp3990
(dp3991
g10
g11
((dp3992
Vmore
p3993
I2
stp3994
Rp3995
sbsg1565
g0
(g5
g6
Ntp3996
Rp3997
(dp3998
g10
g11
((dp3999
g1560
I1
stp4000
Rp4001
sbsVice
p4002
g0
(g5
g6
Ntp4003
Rp4004
(dp4005
g10
g11
((dp4006
Vprice
p4007
I1
sVrice
p4008
I1
stp4009
Rp4010
sbsg3104
g0
(g5
g6
Ntp4011
Rp4012
(dp4013
g10
g11
((dp4014
g3098
I1
sVgrave
p4015
I3
sVwave
p4016
I1
stp4017
Rp4018
sbsVlard
p4019
g0
(g5
g6
Ntp4020
Rp4021
(dp4022
g10
g11
((dp4023
g2404
I1
sVhard
p4024
I1
sVyard
p4025
I4
stp4026
Rp4027
sbsVpeg
p4028
g0
(g5
g6
Ntp4029
Rp4030
(dp4031
g10
g11
((dp4032
Vleg
p4033
I1
stp4034
Rp4035
sbsVdice
p4036
g0
(g5
g6
Ntp4037
Rp4038
(dp4039
g10
g11
((dp4040
Vmice
p4041
I1
sVnice
p4042
I1
stp4043
Rp4044
sbsVbe
p4045
g0
(g5
g6
Ntp4046
Rp4047
(dp4048
g10
g11
((dp4049
Vme
p4050
I192
sVlee
p4051
I2
sVtea
p4052
I1
sVtree
p4053
I7
sVthree
p4054
I2
sVfree
p4055
I1
sVsee
p4056
I12
sVtennessee
p4057
I8
sVplea
p4058
I1
sVknee
p4059
I1
sVsea
p4060
I2
sVguarantee
p4061
I1
stp4062
Rp4063
sbsVsixteen
p4064
g0
(g5
g6
Ntp4065
Rp4066
(dp4067
g10
g11
((dp4068
Vgreen
p4069
I1
stp4070
Rp4071
sbsVrun
p4072
g0
(g5
g6
Ntp4073
Rp4074
(dp4075
g10
g11
((dp4076
Vdone
p4077
I6
sVbegun
p4078
I2
sVfun
p4079
I6
sVsun
p4080
I4
sVson
p4081
I1
sVgun
p4082
I6
sg1516
I2
stp4083
Rp4084
sbsg3888
g0
(g5
g6
Ntp4085
Rp4086
(dp4087
g10
g11
((dp4088
Vcold
p4089
I1
sVold
p4090
I1
stp4091
Rp4092
sbsVrub
p4093
g0
(g5
g6
Ntp4094
Rp4095
(dp4096
g10
g11
((dp4097
Vtub
p4098
I3
stp4099
Rp4100
sbsg963
g0
(g5
g6
Ntp4101
Rp4102
(dp4103
g10
g11
((dp4104
g958
I2
stp4105
Rp4106
sbsVcorn
p4107
g0
(g5
g6
Ntp4108
Rp4109
(dp4110
g10
g11
((dp4111
Vborn
p4112
I4
sg307
I1
stp4113
Rp4114
sbsVclay
p4115
g0
(g5
g6
Ntp4116
Rp4117
(dp4118
g10
g11
((dp4119
Vway
p4120
I4
sVday
p4121
I2
sVtoday
p4122
I1
stp4123
Rp4124
sbsVstew
p4125
g0
(g5
g6
Ntp4126
Rp4127
(dp4128
g10
g11
((dp4129
Vnew
p4130
I1
sVyou
p4131
I1
sVtrue
p4132
I1
sVdo
p4133
I1
stp4134
Rp4135
sbsVache
p4136
g0
(g5
g6
Ntp4137
Rp4138
(dp4139
g10
g11
((dp4140
Vbreak
p4141
I1
sVsnake
p4142
I1
stp4143
Rp4144
sbsVby
p4145
g0
(g5
g6
Ntp4146
Rp4147
(dp4148
g10
g11
((dp4149
Vfly
p4150
I1
sVlie
p4151
I2
sVhigh
p4152
I7
sVgoodbye
p4153
I3
sg619
I1
sVdie
p4154
I5
sVcry
p4155
I3
stp4156
Rp4157
sbsVrut
p4158
g0
(g5
g6
Ntp4159
Rp4160
(dp4161
g10
g11
((dp4162
Vstrut
p4163
I1
stp4164
Rp4165
sbsg2154
g0
(g5
g6
Ntp4166
Rp4167
(dp4168
g10
g11
((dp4169
g1288
I1
sVmine
p4170
I2
stp4171
Rp4172
sbsVo
p4173
g0
(g5
g6
Ntp4174
Rp4175
(dp4176
g10
g11
((dp4177
Vgo
p4178
I2
sVso
p4179
I1
stp4180
Rp4181
sbsVrange
p4182
g0
(g5
g6
Ntp4183
Rp4184
(dp4185
g10
g11
((dp4186
Vchange
p4187
I3
stp4188
Rp4189
sbsg1323
g0
(g5
g6
Ntp4190
Rp4191
(dp4192
g10
g11
((dp4193
Vsoon
p4194
I1
stp4195
Rp4196
sbsg2947
g0
(g5
g6
Ntp4197
Rp4198
(dp4199
g10
g11
((dp4200
Vboss
p4201
I1
stp4202
Rp4203
sbsVfloat
p4204
g0
(g5
g6
Ntp4205
Rp4206
(dp4207
g10
g11
((dp4208
Vboat
p4209
I1
stp4210
Rp4211
sbsVbound
p4212
g0
(g5
g6
Ntp4213
Rp4214
(dp4215
g10
g11
((dp4216
Vsound
p4217
I1
sVfound
p4218
I1
sVhound
p4219
I2
sVaround
p4220
I4
sVground
p4221
I2
stp4222
Rp4223
sbsg4081
g0
(g5
g6
Ntp4224
Rp4225
(dp4226
g10
g11
((dp4227
Vrun
p4228
I1
sg1857
I2
stp4229
Rp4230
sbsVdown
p4231
g0
(g5
g6
Ntp4232
Rp4233
(dp4234
g10
g11
((dp4235
Vtown
p4236
I133
sVbrown
p4237
I38
sVaround
p4238
I87
sVgown
p4239
I5
sVcrown
p4240
I1
sVclown
p4241
I10
sVdowntown
p4242
I2
sVdrown
p4243
I4
sVfrown
p4244
I1
stp4245
Rp4246
sbsVlies
p4247
g0
(g5
g6
Ntp4248
Rp4249
(dp4250
g10
g11
((dp4251
Vdespise
p4252
I1
sVwise
p4253
I1
sVeyes
p4254
I1
stp4255
Rp4256
sbsg1046
g0
(g5
g6
Ntp4257
Rp4258
(dp4259
g10
g11
((dp4260
Vgo
p4261
I2
sVhow
p4262
I1
sVbelow
p4263
I1
sVknow
p4264
I2
stp4265
Rp4266
sbsVdeal
p4267
g0
(g5
g6
Ntp4268
Rp4269
(dp4270
g10
g11
((dp4271
Vfeel
p4272
I2
sVsteal
p4273
I1
stp4274
Rp4275
sbsVflying
p4276
g0
(g5
g6
Ntp4277
Rp4278
(dp4279
g10
g11
((dp4280
Vdying
p4281
I5
sVcrying
p4282
I2
stp4283
Rp4284
sbsVsock
p4285
g0
(g5
g6
Ntp4286
Rp4287
(dp4288
g10
g11
((dp4289
Vrock
p4290
I1
stp4291
Rp4292
sbsVlong
p4293
g0
(g5
g6
Ntp4294
Rp4295
(dp4296
g10
g11
((dp4297
Valong
p4298
I2
sVstrong
p4299
I3
sVwrong
p4300
I48
sg141
I26
sg3531
I2
stp4301
Rp4302
sbsVfight
p4303
g0
(g5
g6
Ntp4304
Rp4305
(dp4306
g10
g11
((dp4307
Vtonight
p4308
I1
sVtight
p4309
I1
sVright
p4310
I9
sVnight
p4311
I18
stp4312
Rp4313
sbsVway
p4314
g0
(g5
g6
Ntp4315
Rp4316
(dp4317
g10
g11
((dp4318
Vplay
p4319
I2
sg3236
I2
sVmay
p4320
I1
sVhey
p4321
I3
sVsay
p4322
I15
sVlay
p4323
I2
sVstay
p4324
I12
sVday
p4325
I69
sg1170
I3
sVtray
p4326
I1
sVpray
p4327
I2
sVpay
p4328
I2
sVaway
p4329
I8
sVgrey
p4330
I6
sVastray
p4331
I1
sg2648
I1
sVclay
p4332
I4
sVsway
p4333
I1
sVtoday
p4334
I7
stp4335
Rp4336
sbsVsuit
p4337
g0
(g5
g6
Ntp4338
Rp4339
(dp4340
g10
g11
((dp4341
Vcute
p4342
I6
stp4343
Rp4344
sbsVjane
p4345
g0
(g5
g6
Ntp4346
Rp4347
(dp4348
g10
g11
((dp4349
Vagain
p4350
I2
sVtrain
p4351
I1
stp4352
Rp4353
sbsVgin
p4354
g0
(g5
g6
Ntp4355
Rp4356
(dp4357
g10
g11
((dp4358
Vbegin
p4359
I2
sVthin
p4360
I3
sVin
p4361
I12
sVwin
p4362
I3
sVsin
p4363
I2
sVbeen
p4364
I2
stp4365
Rp4366
sbsVten
p4367
g0
(g5
g6
Ntp4368
Rp4369
(dp4370
g10
g11
((dp4371
Vagain
p4372
I9
sVhen
p4373
I2
sVmen
p4374
I1
stp4375
Rp4376
sbsVhead
p4377
g0
(g5
g6
Ntp4378
Rp4379
(dp4380
g10
g11
((dp4381
Vshed
p4382
I1
sVsaid
p4383
I2
sVlead
p4384
I1
sVread
p4385
I1
sVdead
p4386
I30
sg3753
I1
sVbed
p4387
I58
sVinstead
p4388
I1
sVbread
p4389
I2
stp4390
Rp4391
sbsVhimself
p4392
g0
(g5
g6
Ntp4393
Rp4394
(dp4395
g10
g11
((dp4396
Vherself
p4397
I1
stp4398
Rp4399
sbsg4240
g0
(g5
g6
Ntp4400
Rp4401
(dp4402
g10
g11
((dp4403
Vdown
p4404
I1
stp4405
Rp4406
sbsg1439
g0
(g5
g6
Ntp4407
Rp4408
(dp4409
g10
g11
((dp4410
Vfeel
p4411
I1
stp4412
Rp4413
sbsg3216
g0
(g5
g6
Ntp4414
Rp4415
(dp4416
g10
g11
((dp4417
g3211
I2
stp4418
Rp4419
sbsg600
g0
(g5
g6
Ntp4420
Rp4421
(dp4422
g10
g11
((dp4423
g595
I1
stp4424
Rp4425
sbsVheat
p4426
g0
(g5
g6
Ntp4427
Rp4428
(dp4429
g10
g11
((dp4430
Vsweet
p4431
I2
sVstreet
p4432
I1
sVeat
p4433
I1
stp4434
Rp4435
sbsg515
g0
(g5
g6
Ntp4436
Rp4437
(dp4438
g10
g11
((dp4439
g509
I1
stp4440
Rp4441
sbsg1503
g0
(g5
g6
Ntp4442
Rp4443
(dp4444
g10
g11
((dp4445
Vtrail
p4446
I1
stp4447
Rp4448
sbsg3986
g0
(g5
g6
Ntp4449
Rp4450
(dp4451
g10
g11
((dp4452
Vcreep
p4453
I1
stp4454
Rp4455
sbsVline
p4456
g0
(g5
g6
Ntp4457
Rp4458
(dp4459
g10
g11
((dp4460
Vshine
p4461
I1
sVnine
p4462
I5
sVwine
p4463
I1
sg2487
I2
sVmine
p4464
I14
sVsign
p4465
I1
stp4466
Rp4467
sbsVtrue
p4468
g0
(g5
g6
Ntp4469
Rp4470
(dp4471
g10
g11
((dp4472
Vdo
p4473
I16
sVtoo
p4474
I4
sVthrough
p4475
I2
sVjew
p4476
I1
sVyou
p4477
I12
sVstew
p4478
I1
stp4479
Rp4480
sbsVballyhoo
p4481
g0
(g5
g6
Ntp4482
Rp4483
(dp4484
g10
g11
((dp4485
Vdo
p4486
I1
stp4487
Rp4488
sbsVborn
p4489
g0
(g5
g6
Ntp4490
Rp4491
(dp4492
g10
g11
((dp4493
Vcorn
p4494
I4
sVhorn
p4495
I1
stp4496
Rp4497
sbsVprowl
p4498
g0
(g5
g6
Ntp4499
Rp4500
(dp4501
g10
g11
((dp4502
Vhowl
p4503
I2
stp4504
Rp4505
sbsg689
g0
(g5
g6
Ntp4506
Rp4507
(dp4508
g10
g11
((dp4509
Vmore
p4510
I1
stp4511
Rp4512
sbsg828
g0
(g5
g6
Ntp4513
Rp4514
(dp4515
g10
g11
((dp4516
Vme
p4517
I1
sVtennessee
p4518
I3
stp4519
Rp4520
sbsg1354
g0
(g5
g6
Ntp4521
Rp4522
(dp4523
g10
g11
((dp4524
Vhell
p4525
I2
sVfarewell
p4526
I1
sVspell
p4527
I2
sVsmell
p4528
I3
sVwell
p4529
I1
stp4530
Rp4531
sbsVdisgrace
p4532
g0
(g5
g6
Ntp4533
Rp4534
(dp4535
g10
g11
((dp4536
Vplace
p4537
I2
sVface
p4538
I1
stp4539
Rp4540
sbsg683
g0
(g5
g6
Ntp4541
Rp4542
(dp4543
g10
g11
((dp4544
Vfloor
p4545
I1
sVmore
p4546
I1
stp4547
Rp4548
sbsg3712
g0
(g5
g6
Ntp4549
Rp4550
(dp4551
g10
g11
((dp4552
g3707
I3
stp4553
Rp4554
sbsVtoss
p4555
g0
(g5
g6
Ntp4556
Rp4557
(dp4558
g10
g11
((dp4559
Vcross
p4560
I1
stp4561
Rp4562
sbsVsale
p4563
g0
(g5
g6
Ntp4564
Rp4565
(dp4566
g10
g11
((dp4567
Vjail
p4568
I3
stp4569
Rp4570
sbsVawhile
p4571
g0
(g5
g6
Ntp4572
Rp4573
(dp4574
g10
g11
((dp4575
Vsmile
p4576
I3
sVmile
p4577
I1
stp4578
Rp4579
sbsg3409
g0
(g5
g6
Ntp4580
Rp4581
(dp4582
g10
g11
((dp4583
g3404
I1
stp4584
Rp4585
sbsVlees
p4586
g0
(g5
g6
Ntp4587
Rp4588
(dp4589
g10
g11
((dp4590
Vcheese
p4591
I1
stp4592
Rp4593
sbsVdying
p4594
g0
(g5
g6
Ntp4595
Rp4596
(dp4597
g10
g11
((dp4598
Vflying
p4599
I5
sVlying
p4600
I1
sVcrying
p4601
I5
stp4602
Rp4603
sbsVfloor
p4604
g0
(g5
g6
Ntp4605
Rp4606
(dp4607
g10
g11
((dp4608
Vfour
p4609
I3
sVsore
p4610
I1
sVshore
p4611
I1
sVdoor
p4612
I13
sg683
I1
sVbefore
p4613
I5
sVmore
p4614
I13
stp4615
Rp4616
sbsg3527
g0
(g5
g6
Ntp4617
Rp4618
(dp4619
g10
g11
((dp4620
g3522
I2
stp4621
Rp4622
sbsVwhen
p4623
g0
(g5
g6
Ntp4624
Rp4625
(dp4626
g10
g11
((dp4627
Vagain
p4628
I2
sVhen
p4629
I3
sVmen
p4630
I3
sVsin
p4631
I1
sVwin
p4632
I1
stp4633
Rp4634
sbsVflood
p4635
g0
(g5
g6
Ntp4636
Rp4637
(dp4638
g10
g11
((dp4639
Vblood
p4640
I1
stp4641
Rp4642
sbsg2826
g0
(g5
g6
Ntp4643
Rp4644
(dp4645
g10
g11
((dp4646
g2821
I3
stp4647
Rp4648
sbsVtie
p4649
g0
(g5
g6
Ntp4650
Rp4651
(dp4652
g10
g11
((dp4653
Vdie
p4654
I1
sVbuy
p4655
I1
stp4656
Rp4657
sbsg4528
g0
(g5
g6
Ntp4658
Rp4659
(dp4660
g10
g11
((dp4661
g2209
I1
sVbell
p4662
I3
stp4663
Rp4664
sbsVroll
p4665
g0
(g5
g6
Ntp4666
Rp4667
(dp4668
g10
g11
((dp4669
Vsoul
p4670
I6
stp4671
Rp4672
sbsVnice
p4673
g0
(g5
g6
Ntp4674
Rp4675
(dp4676
g10
g11
((dp4677
Vtwice
p4678
I2
sVadvice
p4679
I1
sVrice
p4680
I1
sVprice
p4681
I2
sg4036
I1
stp4682
Rp4683
sbsVo'clock
p4684
g0
(g5
g6
Ntp4685
Rp4686
(dp4687
g10
g11
((dp4688
Vrock
p4689
I2
stp4690
Rp4691
sbsVtoad
p4692
g0
(g5
g6
Ntp4693
Rp4694
(dp4695
g10
g11
((dp4696
Vload
p4697
I1
sVroad
p4698
I1
stp4699
Rp4700
sbsg2118
g0
(g5
g6
Ntp4701
Rp4702
(dp4703
g10
g11
((dp4704
g2113
I1
stp4705
Rp4706
sbsVfell
p4707
g0
(g5
g6
Ntp4708
Rp4709
(dp4710
g10
g11
((dp4711
Vshell
p4712
I2
sVwell
p4713
I2
sVtell
p4714
I1
stp4715
Rp4716
sbsVsnooze
p4717
g0
(g5
g6
Ntp4718
Rp4719
(dp4720
g10
g11
((dp4721
Vblues
p4722
I1
stp4723
Rp4724
sbsVdied
p4725
g0
(g5
g6
Ntp4726
Rp4727
(dp4728
g10
g11
((dp4729
Vride
p4730
I4
sVside
p4731
I4
sVcried
p4732
I1
stp4733
Rp4734
sbsVago
p4735
g0
(g5
g6
Ntp4736
Rp4737
(dp4738
g10
g11
((dp4739
Vgo
p4740
I2
sVso
p4741
I3
sVknow
p4742
I1
stp4743
Rp4744
sbsVland
p4745
g0
(g5
g6
Ntp4746
Rp4747
(dp4748
g10
g11
((dp4749
Vsand
p4750
I3
sVhand
p4751
I10
sVunderstand
p4752
I1
sg3547
I1
stp4753
Rp4754
sbsVe
p4755
g0
(g5
g6
Ntp4756
Rp4757
(dp4758
g10
g11
((dp4759
Vg
p4760
I1
stp4761
Rp4762
sbsVcooker
p4763
g0
(g5
g6
Ntp4764
Rp4765
(dp4766
g10
g11
((dp4767
Vlooker
p4768
I1
stp4769
Rp4770
sbsg1537
g0
(g5
g6
Ntp4771
Rp4772
(dp4773
g10
g11
((dp4774
g1531
I2
stp4775
Rp4776
sbsVtogether
p4777
g0
(g5
g6
Ntp4778
Rp4779
(dp4780
g10
g11
((dp4781
Vfeather
p4782
I1
stp4783
Rp4784
sbsVdrown
p4785
g0
(g5
g6
Ntp4786
Rp4787
(dp4788
g10
g11
((dp4789
Vdown
p4790
I4
sVaround
p4791
I1
stp4792
Rp4793
sbsg4600
g0
(g5
g6
Ntp4794
Rp4795
(dp4796
g10
g11
((dp4797
Vdying
p4798
I1
stp4799
Rp4800
sbsVtime
p4801
g0
(g5
g6
Ntp4802
Rp4803
(dp4804
g10
g11
((dp4805
Vprime
p4806
I2
sVdime
p4807
I24
sVslime
p4808
I1
sVcrime
p4809
I5
stp4810
Rp4811
sbsVtube
p4812
g0
(g5
g6
Ntp4813
Rp4814
(dp4815
g10
g11
((dp4816
Vcube
p4817
I2
stp4818
Rp4819
sbsVgown
p4820
g0
(g5
g6
Ntp4821
Rp4822
(dp4823
g10
g11
((dp4824
Vdown
p4825
I5
sVtown
p4826
I1
stp4827
Rp4828
sbsVchain
p4829
g0
(g5
g6
Ntp4830
Rp4831
(dp4832
g10
g11
((dp4833
Vvain
p4834
I1
sVtrain
p4835
I1
sVpain
p4836
I1
stp4837
Rp4838
sbsVdance
p4839
g0
(g5
g6
Ntp4840
Rp4841
(dp4842
g10
g11
((dp4843
Vchance
p4844
I3
sVfrance
p4845
I1
stp4846
Rp4847
sbsg1733
g0
(g5
g6
Ntp4848
Rp4849
(dp4850
g10
g11
((dp4851
g1728
I1
stp4852
Rp4853
sbsVmild
p4854
g0
(g5
g6
Ntp4855
Rp4856
(dp4857
g10
g11
((dp4858
Vwild
p4859
I1
stp4860
Rp4861
sbsg4577
g0
(g5
g6
Ntp4862
Rp4863
(dp4864
g10
g11
((dp4865
g4571
I1
stp4866
Rp4867
sbsVgo
p4868
g0
(g5
g6
Ntp4869
Rp4870
(dp4871
g10
g11
((dp4872
Vblow
p4873
I12
sg4735
I2
sVslow
p4874
I8
sVshow
p4875
I1
sg3161
I1
sVsnow
p4876
I9
sg4173
I2
sVbelow
p4877
I2
sVso
p4878
I19
sVknow
p4879
I33
sVsow
p4880
I2
sVdough
p4881
I3
sVgrow
p4882
I1
sVlow
p4883
I9
stp4884
Rp4885
sbsVmill
p4886
g0
(g5
g6
Ntp4887
Rp4888
(dp4889
g10
g11
((dp4890
Vwill
p4891
I1
sVhill
p4892
I3
stp4893
Rp4894
sbsg2552
g0
(g5
g6
Ntp4895
Rp4896
(dp4897
g10
g11
((dp4898
g2547
I1
sVeight
p4899
I1
sVgate
p4900
I1
stp4901
Rp4902
sbsVhump
p4903
g0
(g5
g6
Ntp4904
Rp4905
(dp4906
g10
g11
((dp4907
Vbump
p4908
I1
stp4909
Rp4910
sbsVflash
p4911
g0
(g5
g6
Ntp4912
Rp4913
(dp4914
g10
g11
((dp4915
Vcrash
p4916
I1
stp4917
Rp4918
sbsg3933
g0
(g5
g6
Ntp4919
Rp4920
(dp4921
g10
g11
((dp4922
Vback
p4923
I2
stp4924
Rp4925
sbsVbrown
p4926
g0
(g5
g6
Ntp4927
Rp4928
(dp4929
g10
g11
((dp4930
Vdown
p4931
I38
sVtown
p4932
I15
sVaround
p4933
I3
stp4934
Rp4935
sbsVstring
p4936
g0
(g5
g6
Ntp4937
Rp4938
(dp4939
g10
g11
((dp4940
Vsing
p4941
I1
sVring
p4942
I1
sVthing
p4943
I1
stp4944
Rp4945
sbsVoutside
p4946
g0
(g5
g6
Ntp4947
Rp4948
(dp4949
g10
g11
((dp4950
Vride
p4951
I1
sVcried
p4952
I1
stp4953
Rp4954
sbsg4016
g0
(g5
g6
Ntp4955
Rp4956
(dp4957
g10
g11
((dp4958
Vbehave
p4959
I1
stp4960
Rp4961
sbsVspoon
p4962
g0
(g5
g6
Ntp4963
Rp4964
(dp4965
g10
g11
((dp4966
Vnoon
p4967
I1
stp4968
Rp4969
sbsVtrough
p4970
g0
(g5
g6
Ntp4971
Rp4972
(dp4973
g10
g11
((dp4974
Voff
p4975
I1
stp4976
Rp4977
sbsVcook
p4978
g0
(g5
g6
Ntp4979
Rp4980
(dp4981
g10
g11
((dp4982
Vbook
p4983
I2
stp4984
Rp4985
sbsg3208
g0
(g5
g6
Ntp4986
Rp4987
(dp4988
g10
g11
((dp4989
g3203
I2
sVlaw
p4990
I1
stp4991
Rp4992
sbsVcool
p4993
g0
(g5
g6
Ntp4994
Rp4995
(dp4996
g10
g11
((dp4997
Vfool
p4998
I4
sVschool
p4999
I1
sVrule
p5000
I1
stp5001
Rp5002
sbsg2593
g0
(g5
g6
Ntp5003
Rp5004
(dp5005
g10
g11
((dp5006
g2588
I1
stp5007
Rp5008
sbsVdie
p5009
g0
(g5
g6
Ntp5010
Rp5011
(dp5012
g10
g11
((dp5013
Vdry
p5014
I4
sVlie
p5015
I12
sVeye
p5016
I1
sg288
I1
sVsigh
p5017
I1
sVcry
p5018
I17
sVsky
p5019
I3
sVpie
p5020
I2
sg4145
I5
sg1022
I1
sVfly
p5021
I2
sVgoodbye
p5022
I4
sg4649
I1
sVwhy
p5023
I3
stp5024
Rp5025
sbsVgun
p5026
g0
(g5
g6
Ntp5027
Rp5028
(dp5029
g10
g11
((dp5030
Vfun
p5031
I3
sVnone
p5032
I1
sVrun
p5033
I6
sVone
p5034
I3
stp5035
Rp5036
sbsVleave
p5037
g0
(g5
g6
Ntp5038
Rp5039
(dp5040
g10
g11
((dp5041
Vgrieve
p5042
I1
stp5043
Rp5044
sbsVthis
p5045
g0
(g5
g6
Ntp5046
Rp5047
(dp5048
g10
g11
((dp5049
Vsis
p5050
I1
sVkiss
p5051
I1
stp5052
Rp5053
sbsVrace
p5054
g0
(g5
g6
Ntp5055
Rp5056
(dp5057
g10
g11
((dp5058
Vplace
p5059
I2
stp5060
Rp5061
sbsVquick
p5062
g0
(g5
g6
Ntp5063
Rp5064
(dp5065
g10
g11
((dp5066
g751
I1
sVsick
p5067
I1
stp5068
Rp5069
sbsVguy
p5070
g0
(g5
g6
Ntp5071
Rp5072
(dp5073
g10
g11
((dp5074
Vpie
p5075
I2
stp5076
Rp5077
sbsVround
p5078
g0
(g5
g6
Ntp5079
Rp5080
(dp5081
g10
g11
((dp5082
g2002
I1
sVaround
p5083
I1
sVground
p5084
I1
stp5085
Rp5086
sbsg2258
g0
(g5
g6
Ntp5087
Rp5088
(dp5089
g10
g11
((dp5090
g2253
I1
stp5091
Rp5092
sbsg3688
g0
(g5
g6
Ntp5093
Rp5094
(dp5095
g10
g11
((dp5096
Vyet
p5097
I2
sVwet
p5098
I1
stp5099
Rp5100
sbsVsigh
p5101
g0
(g5
g6
Ntp5102
Rp5103
(dp5104
g10
g11
((dp5105
Vdie
p5106
I1
sVbye
p5107
I1
stp5108
Rp5109
sbsg2497
g0
(g5
g6
Ntp5110
Rp5111
(dp5112
g10
g11
((dp5113
Vline
p5114
I1
sVfine
p5115
I1
stp5116
Rp5117
sbsVcrook
p5118
g0
(g5
g6
Ntp5119
Rp5120
(dp5121
g10
g11
((dp5122
Vbook
p5123
I1
stp5124
Rp5125
sbsVcost
p5126
g0
(g5
g6
Ntp5127
Rp5128
(dp5129
g10
g11
((dp5130
Vlost
p5131
I1
stp5132
Rp5133
sbsVbail
p5134
g0
(g5
g6
Ntp5135
Rp5136
(dp5137
g10
g11
((dp5138
g105
I1
sVjail
p5139
I24
stp5140
Rp5141
sbsVcell
p5142
g0
(g5
g6
Ntp5143
Rp5144
(dp5145
g10
g11
((dp5146
Vhell
p5147
I1
sVnell
p5148
I2
sVwell
p5149
I1
stp5150
Rp5151
sbsVgoes
p5152
g0
(g5
g6
Ntp5153
Rp5154
(dp5155
g10
g11
((dp5156
g1704
I1
sg480
I2
sVknows
p5157
I1
sVclothes
p5158
I3
stp5159
Rp5160
sbsVground
p5161
g0
(g5
g6
Ntp5162
Rp5163
(dp5164
g10
g11
((dp5165
Vsound
p5166
I3
sg587
I2
sVaround
p5167
I17
sVfound
p5168
I3
sVbound
p5169
I2
sg5078
I1
stp5170
Rp5171
sbsg852
g0
(g5
g6
Ntp5172
Rp5173
(dp5174
g10
g11
((dp5175
Vword
p5176
I1
stp5177
Rp5178
sbsVcan
p5179
g0
(g5
g6
Ntp5180
Rp5181
(dp5182
g10
g11
((dp5183
Vman
p5184
I33
stp5185
Rp5186
sbsg898
g0
(g5
g6
Ntp5187
Rp5188
(dp5189
g10
g11
((dp5190
g1001
I1
sg893
I1
stp5191
Rp5192
sbsg4051
g0
(g5
g6
Ntp5193
Rp5194
(dp5195
g10
g11
((dp5196
g2794
I2
stp5197
Rp5198
sbsVdegree
p5199
g0
(g5
g6
Ntp5200
Rp5201
(dp5202
g10
g11
((dp5203
Vme
p5204
I4
stp5205
Rp5206
sbsg4033
g0
(g5
g6
Ntp5207
Rp5208
(dp5209
g10
g11
((dp5210
g4028
I1
stp5211
Rp5212
sbsVkangaroo
p5213
g0
(g5
g6
Ntp5214
Rp5215
(dp5216
g10
g11
((dp5217
Vdo
p5218
I1
stp5219
Rp5220
sbsValone
p5221
g0
(g5
g6
Ntp5222
Rp5223
(dp5224
g10
g11
((dp5225
g770
I1
sVmoan
p5226
I4
sVstone
p5227
I2
sVown
p5228
I8
sg1607
I3
stp5229
Rp5230
sbsVsing
p5231
g0
(g5
g6
Ntp5232
Rp5233
(dp5234
g10
g11
((dp5235
Vspring
p5236
I1
sVring
p5237
I3
sVwing
p5238
I1
sg4936
I1
sVthing
p5239
I7
stp5240
Rp5241
sbsValong
p5242
g0
(g5
g6
Ntp5243
Rp5244
(dp5245
g10
g11
((dp5246
Vwrong
p5247
I16
sVlong
p5248
I2
sVsong
p5249
I5
stp5250
Rp5251
sbsVfifteen
p5252
g0
(g5
g6
Ntp5253
Rp5254
(dp5255
g10
g11
((dp5256
Vseen
p5257
I2
stp5258
Rp5259
sbsVchange
p5260
g0
(g5
g6
Ntp5261
Rp5262
(dp5263
g10
g11
((dp5264
Vmange
p5265
I1
sVrange
p5266
I3
sVstrange
p5267
I1
stp5268
Rp5269
sbsVwait
p5270
g0
(g5
g6
Ntp5271
Rp5272
(dp5273
g10
g11
((dp5274
Vlate
p5275
I4
sVstate
p5276
I2
sVeight
p5277
I1
sVdate
p5278
I1
sVgate
p5279
I1
sVgait
p5280
I1
stp5281
Rp5282
sbsVbox
p5283
g0
(g5
g6
Ntp5284
Rp5285
(dp5286
g10
g11
((dp5287
Vsocks
p5288
I1
stp5289
Rp5290
sbsVboy
p5291
g0
(g5
g6
Ntp5292
Rp5293
(dp5294
g10
g11
((dp5295
g272
I1
sVjoy
p5296
I1
sg1895
I1
sVillinois
p5297
I1
stp5298
Rp5299
sbsg2585
g0
(g5
g6
Ntp5300
Rp5301
(dp5302
g10
g11
((dp5303
g2580
I1
stp5304
Rp5305
sbsg2268
g0
(g5
g6
Ntp5306
Rp5307
(dp5308
g10
g11
((dp5309
g989
I1
stp5310
Rp5311
sbsVdefeat
p5312
g0
(g5
g6
Ntp5313
Rp5314
(dp5315
g10
g11
((dp5316
Vbeat
p5317
I1
stp5318
Rp5319
sbsVnowhere
p5320
g0
(g5
g6
Ntp5321
Rp5322
(dp5323
g10
g11
((dp5324
Veverywhere
p5325
I1
stp5326
Rp5327
sbsVlove
p5328
g0
(g5
g6
Ntp5329
Rp5330
(dp5331
g10
g11
((dp5332
Vof
p5333
I1
sVdove
p5334
I4
sVabove
p5335
I15
stp5336
Rp5337
sbsg4632
g0
(g5
g6
Ntp5338
Rp5339
(dp5340
g10
g11
((dp5341
Vgin
p5342
I3
sVwhen
p5343
I1
sVin
p5344
I1
stp5345
Rp5346
sbsVduck
p5347
g0
(g5
g6
Ntp5348
Rp5349
(dp5350
g10
g11
((dp5351
Vluck
p5352
I2
stp5353
Rp5354
sbsg2611
g0
(g5
g6
Ntp5355
Rp5356
(dp5357
g10
g11
((dp5358
g2606
I1
stp5359
Rp5360
sbsVcrime
p5361
g0
(g5
g6
Ntp5362
Rp5363
(dp5364
g10
g11
((dp5365
Vtime
p5366
I5
stp5367
Rp5368
sbsVuse
p5369
g0
(g5
g6
Ntp5370
Rp5371
(dp5372
g10
g11
((dp5373
Vjuice
p5374
I2
sVblues
p5375
I1
sg2916
I1
sVshoes
p5376
I1
stp5377
Rp5378
sbsg3410
g0
(g5
g6
Ntp5379
Rp5380
(dp5381
g10
g11
((dp5382
Vgrip
p5383
I2
stp5384
Rp5385
sbsg4320
g0
(g5
g6
Ntp5386
Rp5387
(dp5388
g10
g11
((dp5389
Vaway
p5390
I1
sVday
p5391
I2
sVway
p5392
I1
sVstay
p5393
I1
stp5394
Rp5395
sbsVfrance
p5396
g0
(g5
g6
Ntp5397
Rp5398
(dp5399
g10
g11
((dp5400
Vdance
p5401
I1
sVchance
p5402
I4
stp5403
Rp5404
sbsg930
g0
(g5
g6
Ntp5405
Rp5406
(dp5407
g10
g11
((dp5408
g925
I1
stp5409
Rp5410
sbsVdoubt
p5411
g0
(g5
g6
Ntp5412
Rp5413
(dp5414
g10
g11
((dp5415
Vabout
p5416
I1
sVout
p5417
I5
stp5418
Rp5419
sbsVtoday
p5420
g0
(g5
g6
Ntp5421
Rp5422
(dp5423
g10
g11
((dp5424
g1170
I1
sVplay
p5425
I1
sVaway
p5426
I27
sVhey
p5427
I1
sVstay
p5428
I6
sVsay
p5429
I4
sVway
p5430
I7
sVclay
p5431
I1
sVday
p5432
I5
stp5433
Rp5434
sbsVclub
p5435
g0
(g5
g6
Ntp5436
Rp5437
(dp5438
g10
g11
((dp5439
Vtub
p5440
I1
stp5441
Rp5442
sbsVclaus
p5443
g0
(g5
g6
Ntp5444
Rp5445
(dp5446
g10
g11
((dp5447
Vjaws
p5448
I1
sVlaws
p5449
I1
stp5450
Rp5451
sbsVstone
p5452
g0
(g5
g6
Ntp5453
Rp5454
(dp5455
g10
g11
((dp5456
Valone
p5457
I2
sVmoan
p5458
I1
stp5459
Rp5460
sbsVdowntown
p5461
g0
(g5
g6
Ntp5462
Rp5463
(dp5464
g10
g11
((dp5465
Vdown
p5466
I2
sVaround
p5467
I2
stp5468
Rp5469
sbsVsore
p5470
g0
(g5
g6
Ntp5471
Rp5472
(dp5473
g10
g11
((dp5474
Vmore
p5475
I15
sVfloor
p5476
I1
sVbefore
p5477
I4
stp5478
Rp5479
sbsVtrain
p5480
g0
(g5
g6
Ntp5481
Rp5482
(dp5483
g10
g11
((dp5484
Vagain
p5485
I6
sg3421
I1
sVpain
p5486
I4
sVchain
p5487
I1
sVvain
p5488
I1
sVrain
p5489
I9
sVbrain
p5490
I1
sg4345
I1
stp5491
Rp5492
sbsg5325
g0
(g5
g6
Ntp5493
Rp5494
(dp5495
g10
g11
((dp5496
g5320
I1
stp5497
Rp5498
sbsVbaby
p5499
g0
(g5
g6
Ntp5500
Rp5501
(dp5502
g10
g11
((dp5503
Vmaybe
p5504
I1
stp5505
Rp5506
sbsg2643
g0
(g5
g6
Ntp5507
Rp5508
(dp5509
g10
g11
((dp5510
Vdie
p5511
I2
sVjuly
p5512
I1
sVcry
p5513
I1
sVby
p5514
I1
stp5515
Rp5516
sbsVpout
p5517
g0
(g5
g6
Ntp5518
Rp5519
(dp5520
g10
g11
((dp5521
Vout
p5522
I1
stp5523
Rp5524
sbsVcar
p5525
g0
(g5
g6
Ntp5526
Rp5527
(dp5528
g10
g11
((dp5529
Vguitar
p5530
I1
sVfar
p5531
I4
sVstar
p5532
I5
stp5533
Rp5534
sbsVride
p5535
g0
(g5
g6
Ntp5536
Rp5537
(dp5538
g10
g11
((dp5539
g2081
I1
sVoutside
p5540
I1
sVhide
p5541
I2
sVdied
p5542
I4
sg124
I1
sVside
p5543
I8
sVtied
p5544
I1
stp5545
Rp5546
sbsVflu
p5547
g0
(g5
g6
Ntp5548
Rp5549
(dp5550
g10
g11
((dp5551
Vdo
p5552
I1
sVlou
p5553
I2
stp5554
Rp5555
sbsVsoul
p5556
g0
(g5
g6
Ntp5557
Rp5558
(dp5559
g10
g11
((dp5560
Vcoal
p5561
I4
sVhole
p5562
I2
sVparole
p5563
I1
sg4665
I6
stp5564
Rp5565
sbsVcat
p5566
g0
(g5
g6
Ntp5567
Rp5568
(dp5569
g10
g11
((dp5570
Vgnat
p5571
I1
sg967
I1
sVthat
p5572
I6
stp5573
Rp5574
sbsVthin
p5575
g0
(g5
g6
Ntp5576
Rp5577
(dp5578
g10
g11
((dp5579
g4354
I3
sVin
p5580
I1
stp5581
Rp5582
sbsVmeet
p5583
g0
(g5
g6
Ntp5584
Rp5585
(dp5586
g10
g11
((dp5587
Vbeat
p5588
I1
sVsweet
p5589
I2
sVstreet
p5590
I19
sVmeat
p5591
I1
sVeat
p5592
I1
stp5593
Rp5594
sbsVheart
p5595
g0
(g5
g6
Ntp5596
Rp5597
(dp5598
g10
g11
((dp5599
Vstart
p5600
I7
sVpart
p5601
I19
sVsmart
p5602
I1
sVapart
p5603
I8
stp5604
Rp5605
sbsVbent
p5606
g0
(g5
g6
Ntp5607
Rp5608
(dp5609
g10
g11
((dp5610
Vcent
p5611
I1
stp5612
Rp5613
sbsVpawn
p5614
g0
(g5
g6
Ntp5615
Rp5616
(dp5617
g10
g11
((dp5618
Vgone
p5619
I3
sVon
p5620
I2
stp5621
Rp5622
sbsVdo
p5623
g0
(g5
g6
Ntp5624
Rp5625
(dp5626
g10
g11
((dp5627
Vadieu
p5628
I1
sg5213
I1
sg3170
I1
sVthrough
p5629
I16
sVshoe
p5630
I4
sVtrue
p5631
I16
sVshoo
p5632
I1
sVblue
p5633
I26
sg395
I2
sg4481
I1
sg5547
I1
sVtwo
p5634
I21
sVto
p5635
I8
sVtoo
p5636
I101
sVlou
p5637
I2
sVnew
p5638
I7
sg285
I215
sVstew
p5639
I1
stp5640
Rp5641
sbsVlock
p5642
g0
(g5
g6
Ntp5643
Rp5644
(dp5645
g10
g11
((dp5646
Vdock
p5647
I1
stp5648
Rp5649
sbsVslim
p5650
g0
(g5
g6
Ntp5651
Rp5652
(dp5653
g10
g11
((dp5654
Vjim
p5655
I2
stp5656
Rp5657
sbsVrode
p5658
g0
(g5
g6
Ntp5659
Rp5660
(dp5661
g10
g11
((dp5662
Vroad
p5663
I1
stp5664
Rp5665
sbsg2642
g0
(g5
g6
Ntp5666
Rp5667
(dp5668
g10
g11
((dp5669
Vcry
p5670
I5
sg293
I1
sg5512
I1
sVrye
p5671
I1
sVpie
p5672
I1
sVby
p5673
I7
stp5674
Rp5675
sbsVheard
p5676
g0
(g5
g6
Ntp5677
Rp5678
(dp5679
g10
g11
((dp5680
Vword
p5681
I7
stp5682
Rp5683
sbsg766
g0
(g5
g6
Ntp5684
Rp5685
(dp5686
g10
g11
((dp5687
Vjoke
p5688
I1
sVbroke
p5689
I1
stp5690
Rp5691
sbsg3466
g0
(g5
g6
Ntp5692
Rp5693
(dp5694
g10
g11
((dp5695
Vin
p5696
I3
stp5697
Rp5698
sbsVbend
p5699
g0
(g5
g6
Ntp5700
Rp5701
(dp5702
g10
g11
((dp5703
Vfriend
p5704
I1
stp5705
Rp5706
sbsg2284
g0
(g5
g6
Ntp5707
Rp5708
(dp5709
g10
g11
((dp5710
g2279
I2
stp5711
Rp5712
sbsg3898
g0
(g5
g6
Ntp5713
Rp5714
(dp5715
g10
g11
((dp5716
g3893
I1
stp5717
Rp5718
sbsg3704
g0
(g5
g6
Ntp5719
Rp5720
(dp5721
g10
g11
((dp5722
g3699
I1
stp5723
Rp5724
sbsg1780
g0
(g5
g6
Ntp5725
Rp5726
(dp5727
g10
g11
((dp5728
g1775
I1
stp5729
Rp5730
sbsVlamb
p5731
g0
(g5
g6
Ntp5732
Rp5733
(dp5734
g10
g11
((dp5735
Vslam
p5736
I2
stp5737
Rp5738
sbsg1405
g0
(g5
g6
Ntp5739
Rp5740
(dp5741
g10
g11
((dp5742
g1400
I3
stp5743
Rp5744
sbsVdelay
p5745
g0
(g5
g6
Ntp5746
Rp5747
(dp5748
g10
g11
((dp5749
Vaway
p5750
I1
stp5751
Rp5752
sbsVlamp
p5753
g0
(g5
g6
Ntp5754
Rp5755
(dp5756
g10
g11
((dp5757
Vvamp
p5758
I1
stp5759
Rp5760
sbsg1573
g0
(g5
g6
Ntp5761
Rp5762
(dp5763
g10
g11
((dp5764
g1568
I1
stp5765
Rp5766
sbsg4388
g0
(g5
g6
Ntp5767
Rp5768
(dp5769
g10
g11
((dp5770
Vhead
p5771
I1
sVbed
p5772
I1
stp5773
Rp5774
sbsVsin
p5775
g0
(g5
g6
Ntp5776
Rp5777
(dp5778
g10
g11
((dp5779
g3803
I1
sVgin
p5780
I2
sVwhen
p5781
I1
sVin
p5782
I2
stp5783
Rp5784
sbsVsweat
p5785
g0
(g5
g6
Ntp5786
Rp5787
(dp5788
g10
g11
((dp5789
Vwet
p5790
I1
stp5791
Rp5792
sbsVfare
p5793
g0
(g5
g6
Ntp5794
Rp5795
(dp5796
g10
g11
((dp5797
Vthere
p5798
I5
stp5799
Rp5800
sbsg5050
g0
(g5
g6
Ntp5801
Rp5802
(dp5803
g10
g11
((dp5804
Vthis
p5805
I1
stp5806
Rp5807
sbsg3311
g0
(g5
g6
Ntp5808
Rp5809
(dp5810
g10
g11
((dp5811
g3306
I1
stp5812
Rp5813
sbsg700
g0
(g5
g6
Ntp5814
Rp5815
(dp5816
g10
g11
((dp5817
Vflat
p5818
I1
stp5819
Rp5820
sbsg1635
g0
(g5
g6
Ntp5821
Rp5822
(dp5823
g10
g11
((dp5824
Vharm
p5825
I2
stp5826
Rp5827
sbsVlocked
p5828
g0
(g5
g6
Ntp5829
Rp5830
(dp5831
g10
g11
((dp5832
Vblocked
p5833
I1
stp5834
Rp5835
sbsg1056
g0
(g5
g6
Ntp5836
Rp5837
(dp5838
g10
g11
((dp5839
Vhot
p5840
I1
stp5841
Rp5842
sbsg5544
g0
(g5
g6
Ntp5843
Rp5844
(dp5845
g10
g11
((dp5846
Vride
p5847
I1
sVside
p5848
I1
stp5849
Rp5850
sbsVmae
p5851
g0
(g5
g6
Ntp5852
Rp5853
(dp5854
g10
g11
((dp5855
Vaway
p5856
I1
sVday
p5857
I1
stp5858
Rp5859
sbsVmad
p5860
g0
(g5
g6
Ntp5861
Rp5862
(dp5863
g10
g11
((dp5864
Vbad
p5865
I3
sVhad
p5866
I14
sVglad
p5867
I2
sVsad
p5868
I1
stp5869
Rp5870
sbsVbluff
p5871
g0
(g5
g6
Ntp5872
Rp5873
(dp5874
g10
g11
((dp5875
Venough
p5876
I1
sVstuff
p5877
I3
stp5878
Rp5879
sbsg1427
g0
(g5
g6
Ntp5880
Rp5881
(dp5882
g10
g11
((dp5883
g1417
I2
sVwait
p5884
I1
stp5885
Rp5886
sbsVsuch
p5887
g0
(g5
g6
Ntp5888
Rp5889
(dp5890
g10
g11
((dp5891
Vmuch
p5892
I2
stp5893
Rp5894
sbsVsuck
p5895
g0
(g5
g6
Ntp5896
Rp5897
(dp5898
g10
g11
((dp5899
Vluck
p5900
I2
stp5901
Rp5902
sbsVstrut
p5903
g0
(g5
g6
Ntp5904
Rp5905
(dp5906
g10
g11
((dp5907
Vtut
p5908
I1
sg4158
I1
stp5909
Rp5910
sbsVdove
p5911
g0
(g5
g6
Ntp5912
Rp5913
(dp5914
g10
g11
((dp5915
Vlove
p5916
I4
stp5917
Rp5918
sbsg4882
g0
(g5
g6
Ntp5919
Rp5920
(dp5921
g10
g11
((dp5922
Vgo
p5923
I1
stp5924
Rp5925
sbsVman
p5926
g0
(g5
g6
Ntp5927
Rp5928
(dp5929
g10
g11
((dp5930
Vbegan
p5931
I1
sVcan
p5932
I33
sVplan
p5933
I2
stp5934
Rp5935
sbsg1238
g0
(g5
g6
Ntp5936
Rp5937
(dp5938
g10
g11
((dp5939
Vtaste
p5940
I1
sg1233
I1
stp5941
Rp5942
sbsVlight
p5943
g0
(g5
g6
Ntp5944
Rp5945
(dp5946
g10
g11
((dp5947
Vbright
p5948
I1
sVright
p5949
I5
sVnight
p5950
I4
stp5951
Rp5952
sbsg4741
g0
(g5
g6
Ntp5953
Rp5954
(dp5955
g10
g11
((dp5956
Vago
p5957
I3
sVblow
p5958
I1
sVno
p5959
I1
sVshow
p5960
I1
sVsnow
p5961
I1
sg4173
I1
sg1334
I1
sVlow
p5962
I3
sVgo
p5963
I19
sVknow
p5964
I5
stp5965
Rp5966
sbsg2875
g0
(g5
g6
Ntp5967
Rp5968
(dp5969
g10
g11
((dp5970
g2870
I1
stp5971
Rp5972
sbsVjail
p5973
g0
(g5
g6
Ntp5974
Rp5975
(dp5976
g10
g11
((dp5977
g35
I3
sVrail
p5978
I1
sg4563
I3
sVtrail
p5979
I1
sVfail
p5980
I1
sVmail
p5981
I6
sg2104
I2
sVbail
p5982
I24
stp5983
Rp5984
sbsg2377
g0
(g5
g6
Ntp5985
Rp5986
(dp5987
g10
g11
((dp5988
g2372
I1
stp5989
Rp5990
sbsVtall
p5991
g0
(g5
g6
Ntp5992
Rp5993
(dp5994
g10
g11
((dp5995
Vall
p5996
I4
sVwall
p5997
I2
sVsquall
p5998
I4
sVstall
p5999
I2
sVcall
p6000
I1
sVfall
p6001
I5
sVcrawl
p6002
I1
sVhall
p6003
I3
stp6004
Rp6005
sbsVtalk
p6006
g0
(g5
g6
Ntp6007
Rp6008
(dp6009
g10
g11
((dp6010
Vwalk
p6011
I16
stp6012
Rp6013
sbsVcute
p6014
g0
(g5
g6
Ntp6015
Rp6016
(dp6017
g10
g11
((dp6018
Vfruit
p6019
I1
sVsuit
p6020
I6
stp6021
Rp6022
sbsg5376
g0
(g5
g6
Ntp6023
Rp6024
(dp6025
g10
g11
((dp6026
Vuse
p6027
I1
sVchoose
p6028
I1
sVlose
p6029
I4
sVnews
p6030
I2
sVblues
p6031
I36
sVbooze
p6032
I2
stp6033
Rp6034
sbsg2683
g0
(g5
g6
Ntp6035
Rp6036
(dp6037
g10
g11
((dp6038
Vtears
p6039
I4
sg2678
I2
stp6040
Rp6041
sbsVbrain
p6042
g0
(g5
g6
Ntp6043
Rp6044
(dp6045
g10
g11
((dp6046
Vstrain
p6047
I1
sVtrain
p6048
I1
stp6049
Rp6050
sbsVwon't
p6051
g0
(g5
g6
Ntp6052
Rp6053
(dp6054
g10
g11
((dp6055
Vdon't
p6056
I6
stp6057
Rp6058
sbsg2929
g0
(g5
g6
Ntp6059
Rp6060
(dp6061
g10
g11
((dp6062
Vsold
p6063
I1
sVold
p6064
I2
sVbold
p6065
I1
sg2446
I4
sg469
I1
stp6066
Rp6067
sbsg388
g0
(g5
g6
Ntp6068
Rp6069
(dp6070
g10
g11
((dp6071
Vwill
p6072
I1
sVjill
p6073
I1
sVkill
p6074
I1
sVthrill
p6075
I1
sg2229
I1
sVhill
p6076
I9
stp6077
Rp6078
sbsg5833
g0
(g5
g6
Ntp6079
Rp6080
(dp6081
g10
g11
((dp6082
g5828
I1
stp6083
Rp6084
sbsVpolice
p6085
g0
(g5
g6
Ntp6086
Rp6087
(dp6088
g10
g11
((dp6089
g704
I1
sVpeace
p6090
I6
sg1759
I1
stp6091
Rp6092
sbsg2913
g0
(g5
g6
Ntp6093
Rp6094
(dp6095
g10
g11
((dp6096
g2908
I1
stp6097
Rp6098
sbsVbroom
p6099
g0
(g5
g6
Ntp6100
Rp6101
(dp6102
g10
g11
((dp6103
Vroom
p6104
I2
stp6105
Rp6106
sbsVglee
p6107
g0
(g5
g6
Ntp6108
Rp6109
(dp6110
g10
g11
((dp6111
Vme
p6112
I2
stp6113
Rp6114
sbsg1932
g0
(g5
g6
Ntp6115
Rp6116
(dp6117
g10
g11
((dp6118
g1927
I1
stp6119
Rp6120
sbsVmaid
p6121
g0
(g5
g6
Ntp6122
Rp6123
(dp6124
g10
g11
((dp6125
Vgrade
p6126
I1
sVpaid
p6127
I1
sg1326
I1
stp6128
Rp6129
sbsVdegrees
p6130
g0
(g5
g6
Ntp6131
Rp6132
(dp6133
g10
g11
((dp6134
Vdisease
p6135
I2
stp6136
Rp6137
sbsVchoose
p6138
g0
(g5
g6
Ntp6139
Rp6140
(dp6141
g10
g11
((dp6142
Vnews
p6143
I2
sg6032
I1
sVblues
p6144
I6
sVshoes
p6145
I1
stp6146
Rp6147
sbsVmail
p6148
g0
(g5
g6
Ntp6149
Rp6150
(dp6151
g10
g11
((dp6152
Vtrail
p6153
I2
sVstale
p6154
I1
sVsail
p6155
I1
sVjail
p6156
I6
stp6157
Rp6158
sbsg1717
g0
(g5
g6
Ntp6159
Rp6160
(dp6161
g10
g11
((dp6162
g1712
I1
sg5101
I1
stp6163
Rp6164
sbsg2672
g0
(g5
g6
Ntp6165
Rp6166
(dp6167
g10
g11
((dp6168
Vbad
p6169
I1
stp6170
Rp6171
sbsg4916
g0
(g5
g6
Ntp6172
Rp6173
(dp6174
g10
g11
((dp6175
g4911
I1
stp6176
Rp6177
sbsVflour
p6178
g0
(g5
g6
Ntp6179
Rp6180
(dp6181
g10
g11
((dp6182
Vhour
p6183
I2
stp6184
Rp6185
sbsg1356
g0
(g5
g6
Ntp6186
Rp6187
(dp6188
g10
g11
((dp6189
Vhell
p6190
I1
sVbell
p6191
I2
stp6192
Rp6193
sbsVdat
p6194
g0
(g5
g6
Ntp6195
Rp6196
(dp6197
g10
g11
((dp6198
Vat
p6199
I1
stp6200
Rp6201
sbsVlunch
p6202
g0
(g5
g6
Ntp6203
Rp6204
(dp6205
g10
g11
((dp6206
Vbunch
p6207
I2
stp6208
Rp6209
sbsg3528
g0
(g5
g6
Ntp6210
Rp6211
(dp6212
g10
g11
((dp6213
Vbreak
p6214
I1
sg4136
I1
sVmake
p6215
I1
stp6216
Rp6217
sbsg3696
g0
(g5
g6
Ntp6218
Rp6219
(dp6220
g10
g11
((dp6221
g3691
I1
stp6222
Rp6223
sbsVhalf
p6224
g0
(g5
g6
Ntp6225
Rp6226
(dp6227
g10
g11
((dp6228
Vlaugh
p6229
I2
stp6230
Rp6231
sbsg1753
g0
(g5
g6
Ntp6232
Rp6233
(dp6234
g10
g11
((dp6235
Vgot
p6236
I1
sVhot
p6237
I2
stp6238
Rp6239
sbsVnow
p6240
g0
(g5
g6
Ntp6241
Rp6242
(dp6243
g10
g11
((dp6244
Vhow
p6245
I22
sVwow
p6246
I1
sg3453
I2
sVcow
p6247
I1
stp6248
Rp6249
sbsVday
p6250
g0
(g5
g6
Ntp6251
Rp6252
(dp6253
g10
g11
((dp6254
Vplay
p6255
I2
sVmay
p6256
I2
sVstay
p6257
I28
sVsay
p6258
I29
sVmae
p6259
I1
sVlay
p6260
I24
sg2201
I1
sg1170
I2
sVpray
p6261
I7
sVpay
p6262
I9
sVaway
p6263
I136
sVgrey
p6264
I1
sVhay
p6265
I1
sVway
p6266
I69
sg4115
I2
sVhalfway
p6267
I1
sVtoday
p6268
I5
stp6269
Rp6270
sbsg269
g0
(g5
g6
Ntp6271
Rp6272
(dp6273
g10
g11
((dp6274
Vclothes
p6275
I1
stp6276
Rp6277
sbsg389
g0
(g5
g6
Ntp6278
Rp6279
(dp6280
g10
g11
((dp6281
Vwill
p6282
I1
sVstill
p6283
I1
sVhill
p6284
I1
stp6285
Rp6286
sbsg2569
g0
(g5
g6
Ntp6287
Rp6288
(dp6289
g10
g11
((dp6290
g2563
I1
stp6291
Rp6292
sbsg2078
g0
(g5
g6
Ntp6293
Rp6294
(dp6295
g10
g11
((dp6296
g2073
I1
stp6297
Rp6298
sbsVrock
p6299
g0
(g5
g6
Ntp6300
Rp6301
(dp6302
g10
g11
((dp6303
Vdock
p6304
I2
sg4285
I1
sg4684
I2
stp6305
Rp6306
sbsg4326
g0
(g5
g6
Ntp6307
Rp6308
(dp6309
g10
g11
((dp6310
Vway
p6311
I1
stp6312
Rp6313
sbsg2733
g0
(g5
g6
Ntp6314
Rp6315
(dp6316
g10
g11
((dp6317
Vfair
p6318
I1
sVcare
p6319
I1
stp6320
Rp6321
sbsg4908
g0
(g5
g6
Ntp6322
Rp6323
(dp6324
g10
g11
((dp6325
g4903
I1
stp6326
Rp6327
sbsg2921
g0
(g5
g6
Ntp6328
Rp6329
(dp6330
g10
g11
((dp6331
Vloose
p6332
I1
stp6333
Rp6334
sbsg673
g0
(g5
g6
Ntp6335
Rp6336
(dp6337
g10
g11
((dp6338
Vwell
p6339
I1
sVtell
p6340
I1
sVbell
p6341
I1
stp6342
Rp6343
sbsVbegun
p6344
g0
(g5
g6
Ntp6345
Rp6346
(dp6347
g10
g11
((dp6348
Vsun
p6349
I1
sVrun
p6350
I2
sVdone
p6351
I2
sVone
p6352
I4
stp6353
Rp6354
sbsg3200
g0
(g5
g6
Ntp6355
Rp6356
(dp6357
g10
g11
((dp6358
g3195
I2
sg3357
I2
stp6359
Rp6360
sbsVout
p6361
g0
(g5
g6
Ntp6362
Rp6363
(dp6364
g10
g11
((dp6365
Vabout
p6366
I19
sg5517
I1
sg1199
I1
sVwithout
p6367
I1
sVshout
p6368
I11
sg5411
I5
sVtrout
p6369
I1
sg177
I2
stp6370
Rp6371
sbsg1103
g0
(g5
g6
Ntp6372
Rp6373
(dp6374
g10
g11
((dp6375
Vmess
p6376
I1
stp6377
Rp6378
sbsVastray
p6379
g0
(g5
g6
Ntp6380
Rp6381
(dp6382
g10
g11
((dp6383
Vaway
p6384
I1
sg4314
I1
stp6385
Rp6386
sbsg2671
g0
(g5
g6
Ntp6387
Rp6388
(dp6389
g10
g11
((dp6390
Vbad
p6391
I1
stp6392
Rp6393
sbsg1424
g0
(g5
g6
Ntp6394
Rp6395
(dp6396
g10
g11
((dp6397
Vlate
p6398
I1
stp6399
Rp6400
sbsVred
p6401
g0
(g5
g6
Ntp6402
Rp6403
(dp6404
g10
g11
((dp6405
Vsaid
p6406
I1
sVdead
p6407
I8
sVbed
p6408
I4
stp6409
Rp6410
sbsg1314
g0
(g5
g6
Ntp6411
Rp6412
(dp6413
g10
g11
((dp6414
g1309
I1
stp6415
Rp6416
sbsg6073
g0
(g5
g6
Ntp6417
Rp6418
(dp6419
g10
g11
((dp6420
Vstill
p6421
I1
stp6422
Rp6423
sbsVplea
p6424
g0
(g5
g6
Ntp6425
Rp6426
(dp6427
g10
g11
((dp6428
Vme
p6429
I11
sVknee
p6430
I1
sVbe
p6431
I1
stp6432
Rp6433
sbsVcough
p6434
g0
(g5
g6
Ntp6435
Rp6436
(dp6437
g10
g11
((dp6438
Voff
p6439
I1
stp6440
Rp6441
sbsVcard
p6442
g0
(g5
g6
Ntp6443
Rp6444
(dp6445
g10
g11
((dp6446
Vyard
p6447
I2
stp6448
Rp6449
sbsVcare
p6450
g0
(g5
g6
Ntp6451
Rp6452
(dp6453
g10
g11
((dp6454
Vsquare
p6455
I1
sVdare
p6456
I1
sVfair
p6457
I1
sVchair
p6458
I2
sVmillionaire
p6459
I2
sg349
I1
stp6460
Rp6461
sbsg2242
g0
(g5
g6
Ntp6462
Rp6463
(dp6464
g10
g11
((dp6465
g2237
I1
stp6466
Rp6467
sbsg6447
g0
(g5
g6
Ntp6468
Rp6469
(dp6470
g10
g11
((dp6471
Vbarred
p6472
I8
sVhard
p6473
I15
sg6442
I2
sg2411
I4
stp6474
Rp6475
sbsg4760
g0
(g5
g6
Ntp6476
Rp6477
(dp6478
g10
g11
((dp6479
g4755
I1
stp6480
Rp6481
sbsVcould
p6482
g0
(g5
g6
Ntp6483
Rp6484
(dp6485
g10
g11
((dp6486
Vgood
p6487
I17
sVwood
p6488
I2
sVwould
p6489
I1
stp6490
Rp6491
sbsg2035
g0
(g5
g6
Ntp6492
Rp6493
(dp6494
g10
g11
((dp6495
g2030
I2
sVstring
p6496
I1
sVbring
p6497
I2
sVsing
p6498
I7
sVring
p6499
I12
sVswing
p6500
I5
sg1273
I1
stp6501
Rp6502
sbsVplace
p6503
g0
(g5
g6
Ntp6504
Rp6505
(dp6506
g10
g11
((dp6507
g5054
I2
sVdisgrace
p6508
I2
sVface
p6509
I35
stp6510
Rp6511
sbsg6500
g0
(g5
g6
Ntp6512
Rp6513
(dp6514
g10
g11
((dp6515
Vthing
p6516
I5
sVking
p6517
I1
stp6518
Rp6519
sbsg1693
g0
(g5
g6
Ntp6520
Rp6521
(dp6522
g10
g11
((dp6523
g1688
I1
stp6524
Rp6525
sbsVsouth
p6526
g0
(g5
g6
Ntp6527
Rp6528
(dp6529
g10
g11
((dp6530
Vmouth
p6531
I3
stp6532
Rp6533
sbsg190
g0
(g5
g6
Ntp6534
Rp6535
(dp6536
g10
g11
((dp6537
g185
I2
stp6538
Rp6539
sbsg2044
g0
(g5
g6
Ntp6540
Rp6541
(dp6542
g10
g11
((dp6543
Vbehind
p6544
I1
sVmind
p6545
I5
sVkind
p6546
I2
sVfind
p6547
I2
stp6548
Rp6549
sbsg2885
g0
(g5
g6
Ntp6550
Rp6551
(dp6552
g10
g11
((dp6553
Vknees
p6554
I1
sVplease
p6555
I1
sg4586
I1
stp6556
Rp6557
sbsg1627
g0
(g5
g6
Ntp6558
Rp6559
(dp6560
g10
g11
((dp6561
g1617
I1
stp6562
Rp6563
sbsVsack
p6564
g0
(g5
g6
Ntp6565
Rp6566
(dp6567
g10
g11
((dp6568
Vtrack
p6569
I1
sVback
p6570
I8
stp6571
Rp6572
sbsVyourself
p6573
g0
(g5
g6
Ntp6574
Rp6575
(dp6576
g10
g11
((dp6577
Vshelf
p6578
I9
stp6579
Rp6580
sbsVfast
p6581
g0
(g5
g6
Ntp6582
Rp6583
(dp6584
g10
g11
((dp6585
Vlast
p6586
I7
stp6587
Rp6588
sbsVring
p6589
g0
(g5
g6
Ntp6590
Rp6591
(dp6592
g10
g11
((dp6593
g3901
I2
sVsing
p6594
I3
sVstring
p6595
I1
sVthing
p6596
I12
stp6597
Rp6598
sbsg2983
g0
(g5
g6
Ntp6599
Rp6600
(dp6601
g10
g11
((dp6602
g2978
I1
stp6603
Rp6604
sbsg4990
g0
(g5
g6
Ntp6605
Rp6606
(dp6607
g10
g11
((dp6608
g3208
I1
sVsaw
p6609
I1
stp6610
Rp6611
sbsg3873
g0
(g5
g6
Ntp6612
Rp6613
(dp6614
g10
g11
((dp6615
Vright
p6616
I3
sVnight
p6617
I3
stp6618
Rp6619
sbsg3073
g0
(g5
g6
Ntp6620
Rp6621
(dp6622
g10
g11
((dp6623
Vbeat
p6624
I1
sVsweet
p6625
I1
sVeat
p6626
I1
sVfeet
p6627
I2
stp6628
Rp6629
sbsVwhite
p6630
g0
(g5
g6
Ntp6631
Rp6632
(dp6633
g10
g11
((dp6634
Vtonight
p6635
I4
sVright
p6636
I2
sVnight
p6637
I1
stp6638
Rp6639
sbsVfriend
p6640
g0
(g5
g6
Ntp6641
Rp6642
(dp6643
g10
g11
((dp6644
Vend
p6645
I5
sg5699
I1
sVlend
p6646
I1
stp6647
Rp6648
sbsg2443
g0
(g5
g6
Ntp6649
Rp6650
(dp6651
g10
g11
((dp6652
Vlies
p6653
I1
sg2437
I2
sg161
I1
sg3037
I1
stp6654
Rp6655
sbsVhug
p6656
g0
(g5
g6
Ntp6657
Rp6658
(dp6659
g10
g11
((dp6660
Vjug
p6661
I1
stp6662
Rp6663
sbsVthat
p6664
g0
(g5
g6
Ntp6665
Rp6666
(dp6667
g10
g11
((dp6668
Vflat
p6669
I2
sg2615
I1
sVat
p6670
I1
sVhat
p6671
I1
sg169
I6
sVcat
p6672
I6
stp6673
Rp6674
sbsVshelf
p6675
g0
(g5
g6
Ntp6676
Rp6677
(dp6678
g10
g11
((dp6679
Vmyself
p6680
I8
sg2245
I2
sg6573
I9
stp6681
Rp6682
sbsVlou
p6683
g0
(g5
g6
Ntp6684
Rp6685
(dp6686
g10
g11
((dp6687
Vdo
p6688
I2
sVyou
p6689
I2
sg5547
I2
sVtoo
p6690
I1
stp6691
Rp6692
sbsg5512
g0
(g5
g6
Ntp6693
Rp6694
(dp6695
g10
g11
((dp6696
Vhigh
p6697
I1
sVfly
p6698
I1
sVeye
p6699
I1
stp6700
Rp6701
sbsVgrunt
p6702
g0
(g5
g6
Ntp6703
Rp6704
(dp6705
g10
g11
((dp6706
Vstunt
p6707
I1
stp6708
Rp6709
sbsg4397
g0
(g5
g6
Ntp6710
Rp6711
(dp6712
g10
g11
((dp6713
g4392
I1
stp6714
Rp6715
sbsg416
g0
(g5
g6
Ntp6716
Rp6717
(dp6718
g10
g11
((dp6719
g411
I1
stp6720
Rp6721
sbsg1916
g0
(g5
g6
Ntp6722
Rp6723
(dp6724
g10
g11
((dp6725
Vfeel
p6726
I3
sg1911
I1
stp6727
Rp6728
sbsg1599
g0
(g5
g6
Ntp6729
Rp6730
(dp6731
g10
g11
((dp6732
Vside
p6733
I4
stp6734
Rp6735
sbsg3929
g0
(g5
g6
Ntp6736
Rp6737
(dp6738
g10
g11
((dp6739
Vback
p6740
I1
stp6741
Rp6742
sbsg3354
g0
(g5
g6
Ntp6743
Rp6744
(dp6745
g10
g11
((dp6746
g3349
I2
stp6747
Rp6748
sbsVbed
p6749
g0
(g5
g6
Ntp6750
Rp6751
(dp6752
g10
g11
((dp6753
Vhead
p6754
I58
sVsaid
p6755
I13
sg562
I1
sVread
p6756
I1
sg3939
I20
sg3841
I1
sVspread
p6757
I2
sVinstead
p6758
I1
sVred
p6759
I4
sVbread
p6760
I7
stp6761
Rp6762
sbsg2796
g0
(g5
g6
Ntp6763
Rp6764
(dp6765
g10
g11
((dp6766
Vme
p6767
I1
sVtree
p6768
I1
sVsea
p6769
I1
stp6770
Rp6771
sbsVspat
p6772
g0
(g5
g6
Ntp6773
Rp6774
(dp6775
g10
g11
((dp6776
Vat
p6777
I1
stp6778
Rp6779
sbsg5504
g0
(g5
g6
Ntp6780
Rp6781
(dp6782
g10
g11
((dp6783
g5499
I1
stp6784
Rp6785
sbsg3687
g0
(g5
g6
Ntp6786
Rp6787
(dp6788
g10
g11
((dp6789
Vyet
p6790
I1
stp6791
Rp6792
sbsg3684
g0
(g5
g6
Ntp6793
Rp6794
(dp6795
g10
g11
((dp6796
Vyet
p6797
I1
stp6798
Rp6799
sbsVsal
p6800
g0
(g5
g6
Ntp6801
Rp6802
(dp6803
g10
g11
((dp6804
Vgal
p6805
I2
stp6806
Rp6807
sbsVsad
p6808
g0
(g5
g6
Ntp6809
Rp6810
(dp6811
g10
g11
((dp6812
Vbad
p6813
I6
sVhad
p6814
I8
sVmad
p6815
I1
sg787
I1
stp6816
Rp6817
sbsg6635
g0
(g5
g6
Ntp6818
Rp6819
(dp6820
g10
g11
((dp6821
Vnight
p6822
I3
sVwhite
p6823
I4
sVright
p6824
I13
sVsight
p6825
I1
sVfight
p6826
I1
stp6827
Rp6828
sbsg3740
g0
(g5
g6
Ntp6829
Rp6830
(dp6831
g10
g11
((dp6832
Vpray
p6833
I3
sVaway
p6834
I10
sVstay
p6835
I1
sVhay
p6836
I1
sg1135
I4
sVway
p6837
I15
sVday
p6838
I29
sVtoday
p6839
I4
stp6840
Rp6841
sbsVslam
p6842
g0
(g5
g6
Ntp6843
Rp6844
(dp6845
g10
g11
((dp6846
g5731
I2
sVam
p6847
I1
stp6848
Rp6849
sbsVrent
p6850
g0
(g5
g6
Ntp6851
Rp6852
(dp6853
g10
g11
((dp6854
Vcent
p6855
I6
stp6856
Rp6857
sbsg2175
g0
(g5
g6
Ntp6858
Rp6859
(dp6860
g10
g11
((dp6861
g1819
I1
sg2170
I1
stp6862
Rp6863
sbsg6609
g0
(g5
g6
Ntp6864
Rp6865
(dp6866
g10
g11
((dp6867
Vlaw
p6868
I1
stp6869
Rp6870
sbsg698
g0
(g5
g6
Ntp6871
Rp6872
(dp6873
g10
g11
((dp6874
Vflat
p6875
I1
stp6876
Rp6877
sbsg3519
g0
(g5
g6
Ntp6878
Rp6879
(dp6880
g10
g11
((dp6881
g3514
I1
stp6882
Rp6883
sbsg767
g0
(g5
g6
Ntp6884
Rp6885
(dp6886
g10
g11
((dp6887
Vbroke
p6888
I2
stp6889
Rp6890
sbsVzoo
p6891
g0
(g5
g6
Ntp6892
Rp6893
(dp6894
g10
g11
((dp6895
Vyou
p6896
I1
stp6897
Rp6898
sbsVnote
p6899
g0
(g5
g6
Ntp6900
Rp6901
(dp6902
g10
g11
((dp6903
Vgoat
p6904
I1
sVboat
p6905
I1
stp6906
Rp6907
sbsVlope
p6908
g0
(g5
g6
Ntp6909
Rp6910
(dp6911
g10
g11
((dp6912
Vdope
p6913
I1
stp6914
Rp6915
sbsg2691
g0
(g5
g6
Ntp6916
Rp6917
(dp6918
g10
g11
((dp6919
Vsteak
p6920
I1
stp6921
Rp6922
sbsg2189
g0
(g5
g6
Ntp6923
Rp6924
(dp6925
g10
g11
((dp6926
Vqueen
p6927
I2
sVseen
p6928
I10
sg4064
I1
sVmean
p6929
I1
stp6930
Rp6931
sbsg4359
g0
(g5
g6
Ntp6932
Rp6933
(dp6934
g10
g11
((dp6935
Vgin
p6936
I2
stp6937
Rp6938
sbsVadieu
p6939
g0
(g5
g6
Ntp6940
Rp6941
(dp6942
g10
g11
((dp6943
Vdo
p6944
I1
sVyou
p6945
I1
stp6946
Rp6947
sbsVpain
p6948
g0
(g5
g6
Ntp6949
Rp6950
(dp6951
g10
g11
((dp6952
Vagain
p6953
I1
sg3076
I1
sVtrain
p6954
I4
sg4829
I1
sVrain
p6955
I1
stp6956
Rp6957
sbsVallow
p6958
g0
(g5
g6
Ntp6959
Rp6960
(dp6961
g10
g11
((dp6962
Vhow
p6963
I2
stp6964
Rp6965
sbsVsnuff
p6966
g0
(g5
g6
Ntp6967
Rp6968
(dp6969
g10
g11
((dp6970
Venough
p6971
I1
sVstuff
p6972
I2
sVtough
p6973
I1
stp6974
Rp6975
sbsVtrack
p6976
g0
(g5
g6
Ntp6977
Rp6978
(dp6979
g10
g11
((dp6980
Vblack
p6981
I1
sVback
p6982
I14
sVsack
p6983
I1
sVjack
p6984
I1
stp6985
Rp6986
sbsg4007
g0
(g5
g6
Ntp6987
Rp6988
(dp6989
g10
g11
((dp6990
Vtwice
p6991
I3
sg4002
I1
sg4673
I2
stp6992
Rp6993
sbsg6127
g0
(g5
g6
Ntp6994
Rp6995
(dp6996
g10
g11
((dp6997
g6121
I1
sVmade
p6998
I1
stp6999
Rp7000
sbsVeight
p7001
g0
(g5
g6
Ntp7002
Rp7003
(dp7004
g10
g11
((dp7005
Vlate
p7006
I3
sVgate
p7007
I4
sVstraight
p7008
I1
sg5270
I1
sVkate
p7009
I1
sVgait
p7010
I1
stp7011
Rp7012
sbsg5265
g0
(g5
g6
Ntp7013
Rp7014
(dp7015
g10
g11
((dp7016
g5260
I1
stp7017
Rp7018
sbsVknee
p7019
g0
(g5
g6
Ntp7020
Rp7021
(dp7022
g10
g11
((dp7023
Vme
p7024
I11
sVbe
p7025
I1
sVsee
p7026
I2
sg827
I1
sVgee
p7027
I1
sVtree
p7028
I1
sVagree
p7029
I1
stp7030
Rp7031
sbsVwhy
p7032
g0
(g5
g6
Ntp7033
Rp7034
(dp7035
g10
g11
((dp7036
Vlie
p7037
I1
sVrye
p7038
I1
sVsly
p7039
I1
sg1241
I3
sVdie
p7040
I3
sVcry
p7041
I3
stp7042
Rp7043
sbsg1701
g0
(g5
g6
Ntp7044
Rp7045
(dp7046
g10
g11
((dp7047
g1696
I1
stp7048
Rp7049
sbsg4768
g0
(g5
g6
Ntp7050
Rp7051
(dp7052
g10
g11
((dp7053
g4763
I1
stp7054
Rp7055
sbsg6135
g0
(g5
g6
Ntp7056
Rp7057
(dp7058
g10
g11
((dp7059
g6130
I2
sVwheeze
p7060
I1
sVplease
p7061
I2
stp7062
Rp7063
sbsVface
p7064
g0
(g5
g6
Ntp7065
Rp7066
(dp7067
g10
g11
((dp7068
Vplace
p7069
I35
sVdisgrace
p7070
I1
sg1767
I1
stp7071
Rp7072
sbsVskunk
p7073
g0
(g5
g6
Ntp7074
Rp7075
(dp7076
g10
g11
((dp7077
Vdrunk
p7078
I1
stp7079
Rp7080
sbsg3017
g0
(g5
g6
Ntp7081
Rp7082
(dp7083
g10
g11
((dp7084
g3012
I1
stp7085
Rp7086
sbsVaway
p7087
g0
(g5
g6
Ntp7088
Rp7089
(dp7090
g10
g11
((dp7091
Vplay
p7092
I1
sVmay
p7093
I1
sVstay
p7094
I36
sVsay
p7095
I10
sg5851
I1
sVlay
p7096
I1
sg3671
I1
sVday
p7097
I136
sg1170
I1
sVpray
p7098
I1
sVpay
p7099
I7
sVgrey
p7100
I1
sg6379
I1
sg5745
I1
sVway
p7101
I8
sg132
I1
sVtoday
p7102
I27
stp7103
Rp7104
sbsg5449
g0
(g5
g6
Ntp7105
Rp7106
(dp7107
g10
g11
((dp7108
g5443
I1
stp7109
Rp7110
sbsg2568
g0
(g5
g6
Ntp7111
Rp7112
(dp7113
g10
g11
((dp7114
Vstop
p7115
I1
stp7116
Rp7117
sbsg1755
g0
(g5
g6
Ntp7118
Rp7119
(dp7120
g10
g11
((dp7121
Vgot
p7122
I1
stp7123
Rp7124
sbsg3871
g0
(g5
g6
Ntp7125
Rp7126
(dp7127
g10
g11
((dp7128
Vright
p7129
I1
stp7130
Rp7131
sbsg4875
g0
(g5
g6
Ntp7132
Rp7133
(dp7134
g10
g11
((dp7135
Vgo
p7136
I1
sVdough
p7137
I1
sVso
p7138
I1
sVknow
p7139
I1
stp7140
Rp7141
sbsVrings
p7142
g0
(g5
g6
Ntp7143
Rp7144
(dp7145
g10
g11
((dp7146
Vstrings
p7147
I2
stp7148
Rp7149
sbsg6497
g0
(g5
g6
Ntp7150
Rp7151
(dp7152
g10
g11
((dp7153
Vthing
p7154
I2
stp7155
Rp7156
sbsVbright
p7157
g0
(g5
g6
Ntp7158
Rp7159
(dp7160
g10
g11
((dp7161
Vlight
p7162
I1
sVnight
p7163
I7
stp7164
Rp7165
sbsVshoe
p7166
g0
(g5
g6
Ntp7167
Rp7168
(dp7169
g10
g11
((dp7170
Vdo
p7171
I4
sVyou
p7172
I4
stp7173
Rp7174
sbsg3936
g0
(g5
g6
Ntp7175
Rp7176
(dp7177
g10
g11
((dp7178
Vback
p7179
I1
stp7180
Rp7181
sbsVrough
p7182
g0
(g5
g6
Ntp7183
Rp7184
(dp7185
g10
g11
((dp7186
Venough
p7187
I1
sVstuff
p7188
I10
sVtough
p7189
I5
stp7190
Rp7191
sbsg5632
g0
(g5
g6
Ntp7192
Rp7193
(dp7194
g10
g11
((dp7195
Vdo
p7196
I1
stp7197
Rp7198
sbsg5571
g0
(g5
g6
Ntp7199
Rp7200
(dp7201
g10
g11
((dp7202
Vcat
p7203
I1
stp7204
Rp7205
sbsg1340
g0
(g5
g6
Ntp7206
Rp7207
(dp7208
g10
g11
((dp7209
Vgo
p7210
I8
sVdough
p7211
I2
sVknow
p7212
I1
sVlow
p7213
I2
stp7214
Rp7215
sbsVunkind
p7216
g0
(g5
g6
Ntp7217
Rp7218
(dp7219
g10
g11
((dp7220
Vmind
p7221
I19
stp7222
Rp7223
sbsg3800
g0
(g5
g6
Ntp7224
Rp7225
(dp7226
g10
g11
((dp7227
g3795
I1
stp7228
Rp7229
sbsg5276
g0
(g5
g6
Ntp7230
Rp7231
(dp7232
g10
g11
((dp7233
Vwait
p7234
I2
stp7235
Rp7236
sbsVshould
p7237
g0
(g5
g6
Ntp7238
Rp7239
(dp7240
g10
g11
((dp7241
Vgood
p7242
I10
stp7243
Rp7244
sbsVtears
p7245
g0
(g5
g6
Ntp7246
Rp7247
(dp7248
g10
g11
((dp7249
Vyears
p7250
I4
stp7251
Rp7252
sbsVwood
p7253
g0
(g5
g6
Ntp7254
Rp7255
(dp7256
g10
g11
((dp7257
Vcould
p7258
I2
sVgood
p7259
I12
stp7260
Rp7261
sbsVblack
p7262
g0
(g5
g6
Ntp7263
Rp7264
(dp7265
g10
g11
((dp7266
Vtrack
p7267
I1
sVback
p7268
I8
sVjack
p7269
I1
stp7270
Rp7271
sbsg4817
g0
(g5
g6
Ntp7272
Rp7273
(dp7274
g10
g11
((dp7275
g4812
I2
stp7276
Rp7277
sbsVget
p7278
g0
(g5
g6
Ntp7279
Rp7280
(dp7281
g10
g11
((dp7282
Vquit
p7283
I1
sVwet
p7284
I1
sVit
p7285
I1
sg2315
I1
stp7286
Rp7287
sbsg5588
g0
(g5
g6
Ntp7288
Rp7289
(dp7290
g10
g11
((dp7291
Vfeet
p7292
I3
sVstreet
p7293
I5
sg5312
I1
sVsweet
p7294
I4
sVmeet
p7295
I1
sg1846
I1
stp7296
Rp7297
sbsVbeau
p7298
g0
(g5
g6
Ntp7299
Rp7300
(dp7301
g10
g11
((dp7302
Vblow
p7303
I1
stp7304
Rp7305
sbsg6913
g0
(g5
g6
Ntp7306
Rp7307
(dp7308
g10
g11
((dp7309
g6908
I1
stp7310
Rp7311
sbsVnell
p7312
g0
(g5
g6
Ntp7313
Rp7314
(dp7315
g10
g11
((dp7316
Vcell
p7317
I2
stp7318
Rp7319
sbsVbear
p7320
g0
(g5
g6
Ntp7321
Rp7322
(dp7323
g10
g11
((dp7324
Vhair
p7325
I2
sVthere
p7326
I2
stp7327
Rp7328
sbsVsatisfied
p7329
g0
(g5
g6
Ntp7330
Rp7331
(dp7332
g10
g11
((dp7333
Vpacified
p7334
I1
stp7335
Rp7336
sbsg3060
g0
(g5
g6
Ntp7337
Rp7338
(dp7339
g10
g11
((dp7340
g3055
I1
stp7341
Rp7342
sbsg1034
g0
(g5
g6
Ntp7343
Rp7344
(dp7345
g10
g11
((dp7346
g1028
I1
stp7347
Rp7348
sbsg829
g0
(g5
g6
Ntp7349
Rp7350
(dp7351
g10
g11
((dp7352
Vme
p7353
I2
sVknee
p7354
I1
stp7355
Rp7356
sbsg7060
g0
(g5
g6
Ntp7357
Rp7358
(dp7359
g10
g11
((dp7360
Vdisease
p7361
I1
stp7362
Rp7363
sbsg4806
g0
(g5
g6
Ntp7364
Rp7365
(dp7366
g10
g11
((dp7367
Vtime
p7368
I2
stp7369
Rp7370
sbsVstuff
p7371
g0
(g5
g6
Ntp7372
Rp7373
(dp7374
g10
g11
((dp7375
Vsnuff
p7376
I2
sVenough
p7377
I11
sVtough
p7378
I5
sVrough
p7379
I10
sVbluff
p7380
I3
stp7381
Rp7382
sbsVthrough
p7383
g0
(g5
g6
Ntp7384
Rp7385
(dp7386
g10
g11
((dp7387
Vblue
p7388
I5
sVdo
p7389
I16
sVtoo
p7390
I4
sVyou
p7391
I21
sVtrue
p7392
I2
sVtwo
p7393
I5
sg1408
I2
stp7394
Rp7395
sbsVwhere
p7396
g0
(g5
g6
Ntp7397
Rp7398
(dp7399
g10
g11
((dp7400
Vthere
p7401
I1
stp7402
Rp7403
sbsVframe
p7404
g0
(g5
g6
Ntp7405
Rp7406
(dp7407
g10
g11
((dp7408
Vaim
p7409
I1
sVsame
p7410
I5
stp7411
Rp7412
sbsg2848
g0
(g5
g6
Ntp7413
Rp7414
(dp7415
g10
g11
((dp7416
Vknees
p7417
I1
sVplease
p7418
I1
stp7419
Rp7420
sbsVcue
p7421
g0
(g5
g6
Ntp7422
Rp7423
(dp7424
g10
g11
((dp7425
Vyou
p7426
I1
stp7427
Rp7428
sbsg3985
g0
(g5
g6
Ntp7429
Rp7430
(dp7431
g10
g11
((dp7432
Vcreep
p7433
I1
stp7434
Rp7435
sbsVways
p7436
g0
(g5
g6
Ntp7437
Rp7438
(dp7439
g10
g11
((dp7440
Vdays
p7441
I12
stp7442
Rp7443
sbsg4877
g0
(g5
g6
Ntp7444
Rp7445
(dp7446
g10
g11
((dp7447
Vgo
p7448
I2
sVblow
p7449
I1
sVknow
p7450
I1
sVsow
p7451
I1
stp7452
Rp7453
sbsVbehind
p7454
g0
(g5
g6
Ntp7455
Rp7456
(dp7457
g10
g11
((dp7458
Vblind
p7459
I1
sVmind
p7460
I19
sVfind
p7461
I2
sg3631
I1
stp7462
Rp7463
sbsg6207
g0
(g5
g6
Ntp7464
Rp7465
(dp7466
g10
g11
((dp7467
g6202
I2
stp7468
Rp7469
sbsVends
p7470
g0
(g5
g6
Ntp7471
Rp7472
(dp7473
g10
g11
((dp7474
Vfriends
p7475
I1
stp7476
Rp7477
sbsg5296
g0
(g5
g6
Ntp7478
Rp7479
(dp7480
g10
g11
((dp7481
g5291
I1
stp7482
Rp7483
sbsg1626
g0
(g5
g6
Ntp7484
Rp7485
(dp7486
g10
g11
((dp7487
Vseen
p7488
I1
sVmean
p7489
I1
stp7490
Rp7491
sbsg5908
g0
(g5
g6
Ntp7492
Rp7493
(dp7494
g10
g11
((dp7495
g5903
I1
stp7496
Rp7497
sbsVblame
p7498
g0
(g5
g6
Ntp7499
Rp7500
(dp7501
g10
g11
((dp7502
Vshame
p7503
I1
sVname
p7504
I2
stp7505
Rp7506
sbsVjo
p7507
g0
(g5
g6
Ntp7508
Rp7509
(dp7510
g10
g11
((dp7511
Vlow
p7512
I1
stp7513
Rp7514
sbsVspare
p7515
g0
(g5
g6
Ntp7516
Rp7517
(dp7518
g10
g11
((dp7519
Vthere
p7520
I1
stp7521
Rp7522
sbsVjoe
p7523
g0
(g5
g6
Ntp7524
Rp7525
(dp7526
g10
g11
((dp7527
Vknow
p7528
I2
stp7529
Rp7530
sbsg817
g0
(g5
g6
Ntp7531
Rp7532
(dp7533
g10
g11
((dp7534
Vme
p7535
I5
sg296
I4
sVsee
p7536
I1
stp7537
Rp7538
sbsVtub
p7539
g0
(g5
g6
Ntp7540
Rp7541
(dp7542
g10
g11
((dp7543
g4093
I3
sg5435
I1
sg3153
I3
stp7544
Rp7545
sbsVcomb
p7546
g0
(g5
g6
Ntp7547
Rp7548
(dp7549
g10
g11
((dp7550
Vhome
p7551
I1
stp7552
Rp7553
sbsVcome
p7554
g0
(g5
g6
Ntp7555
Rp7556
(dp7557
g10
g11
((dp7558
Vsome
p7559
I3
stp7560
Rp7561
sbsVtug
p7562
g0
(g5
g6
Ntp7563
Rp7564
(dp7565
g10
g11
((dp7566
Vjug
p7567
I1
stp7568
Rp7569
sbsg5530
g0
(g5
g6
Ntp7570
Rp7571
(dp7572
g10
g11
((dp7573
g5525
I1
stp7574
Rp7575
sbsg3142
g0
(g5
g6
Ntp7576
Rp7577
(dp7578
g10
g11
((dp7579
g3137
I1
stp7580
Rp7581
sbsg5688
g0
(g5
g6
Ntp7582
Rp7583
(dp7584
g10
g11
((dp7585
Vstroke
p7586
I1
sg571
I1
sg760
I1
stp7587
Rp7588
sbsg6459
g0
(g5
g6
Ntp7589
Rp7590
(dp7591
g10
g11
((dp7592
Vcare
p7593
I2
stp7594
Rp7595
sbsg3594
g0
(g5
g6
Ntp7596
Rp7597
(dp7598
g10
g11
((dp7599
Vrain
p7600
I1
stp7601
Rp7602
sbsg3595
g0
(g5
g6
Ntp7603
Rp7604
(dp7605
g10
g11
((dp7606
Vrain
p7607
I1
stp7608
Rp7609
sbsVcomes
p7610
g0
(g5
g6
Ntp7611
Rp7612
(dp7613
g10
g11
((dp7614
Vdrums
p7615
I1
stp7616
Rp7617
sbsg7334
g0
(g5
g6
Ntp7618
Rp7619
(dp7620
g10
g11
((dp7621
g7329
I1
stp7622
Rp7623
sbsg5655
g0
(g5
g6
Ntp7624
Rp7625
(dp7626
g10
g11
((dp7627
g5650
I2
stp7628
Rp7629
sbsVwall
p7630
g0
(g5
g6
Ntp7631
Rp7632
(dp7633
g10
g11
((dp7634
Vsquall
p7635
I1
sVall
p7636
I23
sVball
p7637
I1
sVfall
p7638
I4
sVtall
p7639
I2
sVstall
p7640
I3
sVhall
p7641
I2
stp7642
Rp7643
sbsg1055
g0
(g5
g6
Ntp7644
Rp7645
(dp7646
g10
g11
((dp7647
g1049
I2
stp7648
Rp7649
sbsVwalk
p7650
g0
(g5
g6
Ntp7651
Rp7652
(dp7653
g10
g11
((dp7654
Vtalk
p7655
I16
stp7656
Rp7657
sbsg6229
g0
(g5
g6
Ntp7658
Rp7659
(dp7660
g10
g11
((dp7661
g6224
I2
stp7662
Rp7663
sbsg4209
g0
(g5
g6
Ntp7664
Rp7665
(dp7666
g10
g11
((dp7667
g6899
I1
sg4204
I1
stp7668
Rp7669
sbsg3434
g0
(g5
g6
Ntp7670
Rp7671
(dp7672
g10
g11
((dp7673
g2555
I2
sg3429
I2
sg1380
I1
sVget
p7674
I1
stp7675
Rp7676
sbsg3150
g0
(g5
g6
Ntp7677
Rp7678
(dp7679
g10
g11
((dp7680
g3145
I1
sVdamp
p7681
I1
sVcamp
p7682
I1
stp7683
Rp7684
sbsVwest
p7685
g0
(g5
g6
Ntp7686
Rp7687
(dp7688
g10
g11
((dp7689
Vnest
p7690
I2
sVrest
p7691
I10
sVbest
p7692
I5
sVbreast
p7693
I1
stp7694
Rp7695
sbsg1591
g0
(g5
g6
Ntp7696
Rp7697
(dp7698
g10
g11
((dp7699
g1586
I2
sg5606
I1
sVrent
p7700
I6
stp7701
Rp7702
sbsVbreath
p7703
g0
(g5
g6
Ntp7704
Rp7705
(dp7706
g10
g11
((dp7707
Vdeath
p7708
I3
stp7709
Rp7710
sbsg1536
g0
(g5
g6
Ntp7711
Rp7712
(dp7713
g10
g11
((dp7714
Vbank
p7715
I1
stp7716
Rp7717
sbsg4782
g0
(g5
g6
Ntp7718
Rp7719
(dp7720
g10
g11
((dp7721
g4777
I1
stp7722
Rp7723
sbsg2276
g0
(g5
g6
Ntp7724
Rp7725
(dp7726
g10
g11
((dp7727
g2271
I1
stp7728
Rp7729
sbsg2771
g0
(g5
g6
Ntp7730
Rp7731
(dp7732
g10
g11
((dp7733
g2766
I1
stp7734
Rp7735
sbsg4217
g0
(g5
g6
Ntp7736
Rp7737
(dp7738
g10
g11
((dp7739
Vground
p7740
I3
sVbound
p7741
I1
sVaround
p7742
I1
stp7743
Rp7744
sbsVmyself
p7745
g0
(g5
g6
Ntp7746
Rp7747
(dp7748
g10
g11
((dp7749
Vshelf
p7750
I8
stp7751
Rp7752
sbsg2886
g0
(g5
g6
Ntp7753
Rp7754
(dp7755
g10
g11
((dp7756
Vplease
p7757
I1
stp7758
Rp7759
sbsg494
g0
(g5
g6
Ntp7760
Rp7761
(dp7762
g10
g11
((dp7763
g489
I1
stp7764
Rp7765
sbsVtrick
p7766
g0
(g5
g6
Ntp7767
Rp7768
(dp7769
g10
g11
((dp7770
Vsick
p7771
I1
stp7772
Rp7773
sbsg4859
g0
(g5
g6
Ntp7774
Rp7775
(dp7776
g10
g11
((dp7777
g4854
I1
sVchild
p7778
I13
stp7779
Rp7780
sbsVvest
p7781
g0
(g5
g6
Ntp7782
Rp7783
(dp7784
g10
g11
((dp7785
Vrest
p7786
I1
stp7787
Rp7788
sbsg4640
g0
(g5
g6
Ntp7789
Rp7790
(dp7791
g10
g11
((dp7792
g4635
I1
stp7793
Rp7794
sbsg6047
g0
(g5
g6
Ntp7795
Rp7796
(dp7797
g10
g11
((dp7798
g6042
I1
stp7799
Rp7800
sbsg3790
g0
(g5
g6
Ntp7801
Rp7802
(dp7803
g10
g11
((dp7804
Vhat
p7805
I1
stp7806
Rp7807
sbsVmccomb
p7808
g0
(g5
g6
Ntp7809
Rp7810
(dp7811
g10
g11
((dp7812
Vhome
p7813
I1
stp7814
Rp7815
sbsVpay
p7816
g0
(g5
g6
Ntp7817
Rp7818
(dp7819
g10
g11
((dp7820
g1170
I1
sg3734
I1
sVaway
p7821
I7
sVday
p7822
I9
sVway
p7823
I2
stp7824
Rp7825
sbsg5931
g0
(g5
g6
Ntp7826
Rp7827
(dp7828
g10
g11
((dp7829
Vman
p7830
I1
stp7831
Rp7832
sbsg4560
g0
(g5
g6
Ntp7833
Rp7834
(dp7835
g10
g11
((dp7836
g4555
I1
sg2941
I1
stp7837
Rp7838
sbsVsame
p7839
g0
(g5
g6
Ntp7840
Rp7841
(dp7842
g10
g11
((dp7843
g2969
I1
sg7404
I5
sg3811
I2
sVname
p7844
I15
stp7845
Rp7846
sbsg5267
g0
(g5
g6
Ntp7847
Rp7848
(dp7849
g10
g11
((dp7850
Vchange
p7851
I1
stp7852
Rp7853
sbsg4712
g0
(g5
g6
Ntp7854
Rp7855
(dp7856
g10
g11
((dp7857
Vfell
p7858
I2
stp7859
Rp7860
sbsg392
g0
(g5
g6
Ntp7861
Rp7862
(dp7863
g10
g11
((dp7864
Vwill
p7865
I1
stp7866
Rp7867
sbsg3265
g0
(g5
g6
Ntp7868
Rp7869
(dp7870
g10
g11
((dp7871
Vgal
p7872
I1
stp7873
Rp7874
sbsg3126
g0
(g5
g6
Ntp7875
Rp7876
(dp7877
g10
g11
((dp7878
g3121
I1
stp7879
Rp7880
sbsVball
p7881
g0
(g5
g6
Ntp7882
Rp7883
(dp7884
g10
g11
((dp7885
Vwall
p7886
I1
sVall
p7887
I7
sVhall
p7888
I1
sVfall
p7889
I1
stp7890
Rp7891
sbsVslave
p7892
g0
(g5
g6
Ntp7893
Rp7894
(dp7895
g10
g11
((dp7896
Vgrave
p7897
I9
stp7898
Rp7899
sbsg2828
g0
(g5
g6
Ntp7900
Rp7901
(dp7902
g10
g11
((dp7903
Vwest
p7904
I2
sVbest
p7905
I1
sVrest
p7906
I3
stp7907
Rp7908
sbsVdrink
p7909
g0
(g5
g6
Ntp7910
Rp7911
(dp7912
g10
g11
((dp7913
Vthink
p7914
I7
stp7915
Rp7916
sbsg6019
g0
(g5
g6
Ntp7917
Rp7918
(dp7919
g10
g11
((dp7920
g6014
I1
stp7921
Rp7922
sbsg801
g0
(g5
g6
Ntp7923
Rp7924
(dp7925
g10
g11
((dp7926
Vtrust
p7927
I2
sg796
I3
stp7928
Rp7929
sbsVweep
p7930
g0
(g5
g6
Ntp7931
Rp7932
(dp7933
g10
g11
((dp7934
Vdeep
p7935
I1
stp7936
Rp7937
sbsg6439
g0
(g5
g6
Ntp7938
Rp7939
(dp7940
g10
g11
((dp7941
g6434
I1
sg4970
I1
stp7942
Rp7943
sbsg6304
g0
(g5
g6
Ntp7944
Rp7945
(dp7946
g10
g11
((dp7947
g5642
I1
sg6299
I2
stp7948
Rp7949
sbsg619
g0
(g5
g6
Ntp7950
Rp7951
(dp7952
g10
g11
((dp7953
Veye
p7954
I1
sVby
p7955
I1
stp7956
Rp7957
sbsg5959
g0
(g5
g6
Ntp7958
Rp7959
(dp7960
g10
g11
((dp7961
Vso
p7962
I1
stp7963
Rp7964
sbsVwell
p7965
g0
(g5
g6
Ntp7966
Rp7967
(dp7968
g10
g11
((dp7969
Vcell
p7970
I1
sVhell
p7971
I17
sVfell
p7972
I2
sVfarewell
p7973
I1
sVbell
p7974
I1
sg1256
I2
sVtell
p7975
I5
stp7976
Rp7977
sbsg6367
g0
(g5
g6
Ntp7978
Rp7979
(dp7980
g10
g11
((dp7981
Vout
p7982
I1
stp7983
Rp7984
sbsg3605
g0
(g5
g6
Ntp7985
Rp7986
(dp7987
g10
g11
((dp7988
Vhand
p7989
I1
stp7990
Rp7991
sbsg6090
g0
(g5
g6
Ntp7992
Rp7993
(dp7994
g10
g11
((dp7995
g6085
I6
stp7996
Rp7997
sbsg5051
g0
(g5
g6
Ntp7998
Rp7999
(dp8000
g10
g11
((dp8001
g5045
I1
stp8002
Rp8003
sbsg1601
g0
(g5
g6
Ntp8004
Rp8005
(dp8006
g10
g11
((dp8007
g4946
I1
sVside
p8008
I4
sVdied
p8009
I1
sg1089
I1
stp8010
Rp8011
sbsVwren
p8012
g0
(g5
g6
Ntp8013
Rp8014
(dp8015
g10
g11
((dp8016
Vhen
p8017
I1
stp8018
Rp8019
sbsg4808
g0
(g5
g6
Ntp8020
Rp8021
(dp8022
g10
g11
((dp8023
Vtime
p8024
I1
stp8025
Rp8026
sbsVrest
p8027
g0
(g5
g6
Ntp8028
Rp8029
(dp8030
g10
g11
((dp8031
g7781
I1
sVbreast
p8032
I8
sVwest
p8033
I10
sVnest
p8034
I3
sg2829
I1
sVbest
p8035
I6
stp8036
Rp8037
sbsg818
g0
(g5
g6
Ntp8038
Rp8039
(dp8040
g10
g11
((dp8041
Vme
p8042
I1
stp8043
Rp8044
sbsg6074
g0
(g5
g6
Ntp8045
Rp8046
(dp8047
g10
g11
((dp8048
Vstill
p8049
I1
stp8050
Rp8051
sbsg5758
g0
(g5
g6
Ntp8052
Rp8053
(dp8054
g10
g11
((dp8055
g5753
I1
stp8056
Rp8057
sbsg6267
g0
(g5
g6
Ntp8058
Rp8059
(dp8060
g10
g11
((dp8061
Vday
p8062
I1
stp8063
Rp8064
sbsVblow
p8065
g0
(g5
g6
Ntp8066
Rp8067
(dp8068
g10
g11
((dp8069
Vbelow
p8070
I1
sVdough
p8071
I1
sVknow
p8072
I3
sVgo
p8073
I12
sg7298
I1
sVso
p8074
I1
stp8075
Rp8076
sbsVdeath
p8077
g0
(g5
g6
Ntp8078
Rp8079
(dp8080
g10
g11
((dp8081
Vbreath
p8082
I3
stp8083
Rp8084
sbsg822
g0
(g5
g6
Ntp8085
Rp8086
(dp8087
g10
g11
((dp8088
Vme
p8089
I2
stp8090
Rp8091
sbsVdrunk
p8092
g0
(g5
g6
Ntp8093
Rp8094
(dp8095
g10
g11
((dp8096
g7073
I1
sVtrunk
p8097
I11
stp8098
Rp8099
sbsg2640
g0
(g5
g6
Ntp8100
Rp8101
(dp8102
g10
g11
((dp8103
Vdie
p8104
I3
sVcry
p8105
I1
stp8106
Rp8107
sbsg3401
g0
(g5
g6
Ntp8108
Rp8109
(dp8110
g10
g11
((dp8111
Vmistake
p8112
I1
stp8113
Rp8114
sbsVhall
p8115
g0
(g5
g6
Ntp8116
Rp8117
(dp8118
g10
g11
((dp8119
g20
I2
sVall
p8120
I6
sVball
p8121
I1
sVfall
p8122
I1
sVwall
p8123
I2
sVtall
p8124
I3
sVstall
p8125
I5
stp8126
Rp8127
sbsg447
g0
(g5
g6
Ntp8128
Rp8129
(dp8130
g10
g11
((dp8131
Vwhile
p8132
I1
stp8133
Rp8134
sbsg532
g0
(g5
g6
Ntp8135
Rp8136
(dp8137
g10
g11
((dp8138
Vregret
p8139
I1
sg527
I3
sg26
I2
sg7278
I1
sg3679
I3
sg5785
I1
stp8140
Rp8141
sbsVloan
p8142
g0
(g5
g6
Ntp8143
Rp8144
(dp8145
g10
g11
((dp8146
Vown
p8147
I1
stp8148
Rp8149
sbsg5602
g0
(g5
g6
Ntp8150
Rp8151
(dp8152
g10
g11
((dp8153
Vheart
p8154
I1
stp8155
Rp8156
sbsg2612
g0
(g5
g6
Ntp8157
Rp8158
(dp8159
g10
g11
((dp8160
Vhim
p8161
I1
stp8162
Rp8163
sbsVaround
p8164
g0
(g5
g6
Ntp8165
Rp8166
(dp8167
g10
g11
((dp8168
Vtown
p8169
I61
sVsound
p8170
I1
sVbrown
p8171
I3
sVbound
p8172
I4
sVclown
p8173
I3
sVdowntown
p8174
I2
sVdrown
p8175
I1
sVfound
p8176
I10
sVhound
p8177
I2
sVround
p8178
I1
sVdown
p8179
I87
sVground
p8180
I17
stp8181
Rp8182
sbsVread
p8183
g0
(g5
g6
Ntp8184
Rp8185
(dp8186
g10
g11
((dp8187
Vhead
p8188
I1
sVdead
p8189
I12
sVbed
p8190
I1
stp8191
Rp8192
sbsVdark
p8193
g0
(g5
g6
Ntp8194
Rp8195
(dp8196
g10
g11
((dp8197
g2807
I5
sVpark
p8198
I2
stp8199
Rp8200
sbsg16
g0
(g5
g6
Ntp8201
Rp8202
(dp8203
g10
g11
((dp8204
Vall
p8205
I2
sg2089
I4
stp8206
Rp8207
sbsVfive
p8208
g0
(g5
g6
Ntp8209
Rp8210
(dp8211
g10
g11
((dp8212
g658
I1
sValive
p8213
I2
stp8214
Rp8215
sbsg7450
g0
(g5
g6
Ntp8216
Rp8217
(dp8218
g10
g11
((dp8219
Vblow
p8220
I3
sVago
p8221
I1
sVhoe
p8222
I1
sg4875
I1
sVfro
p8223
I1
sVsnow
p8224
I1
sVbelow
p8225
I1
sVslow
p8226
I1
sVdough
p8227
I2
sVjoe
p8228
I2
sVsow
p8229
I2
sVgo
p8230
I33
sVso
p8231
I5
sVlow
p8232
I2
stp8233
Rp8234
sbsg6707
g0
(g5
g6
Ntp8235
Rp8236
(dp8237
g10
g11
((dp8238
g6702
I1
stp8239
Rp8240
sbsg3544
g0
(g5
g6
Ntp8241
Rp8242
(dp8243
g10
g11
((dp8244
g3539
I1
stp8245
Rp8246
sbsg6456
g0
(g5
g6
Ntp8247
Rp8248
(dp8249
g10
g11
((dp8250
Vcare
p8251
I1
stp8252
Rp8253
sbsg7504
g0
(g5
g6
Ntp8254
Rp8255
(dp8256
g10
g11
((dp8257
g7498
I2
sVshame
p8258
I6
sVgame
p8259
I2
sVsame
p8260
I15
stp8261
Rp8262
sbsg5131
g0
(g5
g6
Ntp8263
Rp8264
(dp8265
g10
g11
((dp8266
g5126
I1
stp8267
Rp8268
sbsVclown
p8269
g0
(g5
g6
Ntp8270
Rp8271
(dp8272
g10
g11
((dp8273
Vdown
p8274
I10
sVtown
p8275
I2
sVaround
p8276
I3
stp8277
Rp8278
sbsg2991
g0
(g5
g6
Ntp8279
Rp8280
(dp8281
g10
g11
((dp8282
g2986
I1
stp8283
Rp8284
sbsVlose
p8285
g0
(g5
g6
Ntp8286
Rp8287
(dp8288
g10
g11
((dp8289
Vnews
p8290
I1
sVbooze
p8291
I1
sVshoes
p8292
I4
sVblues
p8293
I14
stp8294
Rp8295
sbsVchick
p8296
g0
(g5
g6
Ntp8297
Rp8298
(dp8299
g10
g11
((dp8300
Vsick
p8301
I1
stp8302
Rp8303
sbsg4382
g0
(g5
g6
Ntp8304
Rp8305
(dp8306
g10
g11
((dp8307
Vhead
p8308
I1
stp8309
Rp8310
sbsg8213
g0
(g5
g6
Ntp8311
Rp8312
(dp8313
g10
g11
((dp8314
g8208
I2
stp8315
Rp8316
sbsVhair
p8317
g0
(g5
g6
Ntp8318
Rp8319
(dp8320
g10
g11
((dp8321
g360
I1
sVthere
p8322
I5
sg7320
I2
stp8323
Rp8324
sbsg48
g0
(g5
g6
Ntp8325
Rp8326
(dp8327
g10
g11
((dp8328
g43
I1
stp8329
Rp8330
sbsVhome
p8331
g0
(g5
g6
Ntp8332
Rp8333
(dp8334
g10
g11
((dp8335
g3641
I2
sg7808
I1
sg7546
I1
sVroam
p8336
I1
stp8337
Rp8338
sbsg1614
g0
(g5
g6
Ntp8339
Rp8340
(dp8341
g10
g11
((dp8342
Vbone
p8343
I1
stp8344
Rp8345
sbsg3947
g0
(g5
g6
Ntp8346
Rp8347
(dp8348
g10
g11
((dp8349
Vhead
p8350
I1
sVdead
p8351
I1
stp8352
Rp8353
sbsg2938
g0
(g5
g6
Ntp8354
Rp8355
(dp8356
g10
g11
((dp8357
g2933
I1
stp8358
Rp8359
sbsg1322
g0
(g5
g6
Ntp8360
Rp8361
(dp8362
g10
g11
((dp8363
g4962
I1
sg1317
I1
stp8364
Rp8365
sbsg6646
g0
(g5
g6
Ntp8366
Rp8367
(dp8368
g10
g11
((dp8369
Vfriend
p8370
I1
stp8371
Rp8372
sbsg2186
g0
(g5
g6
Ntp8373
Rp8374
(dp8375
g10
g11
((dp8376
Vseen
p8377
I1
stp8378
Rp8379
sbsg1084
g0
(g5
g6
Ntp8380
Rp8381
(dp8382
g10
g11
((dp8383
g1079
I1
stp8384
Rp8385
sbsg3224
g0
(g5
g6
Ntp8386
Rp8387
(dp8388
g10
g11
((dp8389
Vlife
p8390
I1
stp8391
Rp8392
sbsg6369
g0
(g5
g6
Ntp8393
Rp8394
(dp8395
g10
g11
((dp8396
Vout
p8397
I1
stp8398
Rp8399
sbsg601
g0
(g5
g6
Ntp8400
Rp8401
(dp8402
g10
g11
((dp8403
Vtoys
p8404
I1
stp8405
Rp8406
sbsVwheat
p8407
g0
(g5
g6
Ntp8408
Rp8409
(dp8410
g10
g11
((dp8411
Veat
p8412
I1
sVmeat
p8413
I1
stp8414
Rp8415
sbsVsquall
p8416
g0
(g5
g6
Ntp8417
Rp8418
(dp8419
g10
g11
((dp8420
Vwall
p8421
I1
sg5991
I4
sVall
p8422
I2
sVstall
p8423
I1
stp8424
Rp8425
sbsVwoe
p8426
g0
(g5
g6
Ntp8427
Rp8428
(dp8429
g10
g11
((dp8430
Vlow
p8431
I1
stp8432
Rp8433
sbsg7615
g0
(g5
g6
Ntp8434
Rp8435
(dp8436
g10
g11
((dp8437
g7610
I1
stp8438
Rp8439
sbsVthrone
p8440
g0
(g5
g6
Ntp8441
Rp8442
(dp8443
g10
g11
((dp8444
Vown
p8445
I1
stp8446
Rp8447
sbsVon
p8448
g0
(g5
g6
Ntp8449
Rp8450
(dp8451
g10
g11
((dp8452
Vgone
p8453
I37
sVpawn
p8454
I2
stp8455
Rp8456
sbsVabout
p8457
g0
(g5
g6
Ntp8458
Rp8459
(dp8460
g10
g11
((dp8461
Vshout
p8462
I3
sVdoubt
p8463
I1
sVout
p8464
I19
stp8465
Rp8466
sbsg1369
g0
(g5
g6
Ntp8467
Rp8468
(dp8469
g10
g11
((dp8470
Vbefore
p8471
I1
stp8472
Rp8473
sbsg5333
g0
(g5
g6
Ntp8474
Rp8475
(dp8476
g10
g11
((dp8477
Vlove
p8478
I1
stp8479
Rp8480
sbsg92
g0
(g5
g6
Ntp8481
Rp8482
(dp8483
g10
g11
((dp8484
g87
I1
stp8485
Rp8486
sbsg1441
g0
(g5
g6
Ntp8487
Rp8488
(dp8489
g10
g11
((dp8490
g1431
I2
sVsteal
p8491
I2
stp8492
Rp8493
sbsg3606
g0
(g5
g6
Ntp8494
Rp8495
(dp8496
g10
g11
((dp8497
Vhand
p8498
I2
stp8499
Rp8500
sbsg8336
g0
(g5
g6
Ntp8501
Rp8502
(dp8503
g10
g11
((dp8504
g8331
I1
stp8505
Rp8506
sbsg862
g0
(g5
g6
Ntp8507
Rp8508
(dp8509
g10
g11
((dp8510
Vroom
p8511
I1
stp8512
Rp8513
sbsVluck
p8514
g0
(g5
g6
Ntp8515
Rp8516
(dp8517
g10
g11
((dp8518
g5895
I2
sVduck
p8519
I2
stp8520
Rp8521
sbsg7681
g0
(g5
g6
Ntp8522
Rp8523
(dp8524
g10
g11
((dp8525
Vtramp
p8526
I1
sg2387
I1
stp8527
Rp8528
sbsVroad
p8529
g0
(g5
g6
Ntp8530
Rp8531
(dp8532
g10
g11
((dp8533
Vload
p8534
I6
sg4692
I1
sg5658
I1
stp8535
Rp8536
sbsg8445
g0
(g5
g6
Ntp8537
Rp8538
(dp8539
g10
g11
((dp8540
g8440
I1
sValone
p8541
I8
sg8142
I1
sVmoan
p8542
I1
stp8543
Rp8544
sbsg2829
g0
(g5
g6
Ntp8545
Rp8546
(dp8547
g10
g11
((dp8548
Vrest
p8549
I1
sg2821
I1
stp8550
Rp8551
sbsg5288
g0
(g5
g6
Ntp8552
Rp8553
(dp8554
g10
g11
((dp8555
g5283
I1
stp8556
Rp8557
sbsg4054
g0
(g5
g6
Ntp8558
Rp8559
(dp8560
g10
g11
((dp8561
Vme
p8562
I19
sVbe
p8563
I2
sVsee
p8564
I1
sVtennessee
p8565
I1
sVfree
p8566
I1
stp8567
Rp8568
sbsg821
g0
(g5
g6
Ntp8569
Rp8570
(dp8571
g10
g11
((dp8572
Vme
p8573
I1
stp8574
Rp8575
sbsVlog
p8576
g0
(g5
g6
Ntp8577
Rp8578
(dp8579
g10
g11
((dp8580
Vdog
p8581
I11
stp8582
Rp8583
sbsg7401
g0
(g5
g6
Ntp8584
Rp8585
(dp8586
g10
g11
((dp8587
g5793
I5
sVfair
p8588
I1
sVbear
p8589
I2
sVair
p8590
I7
sVhair
p8591
I5
sg7515
I1
sg2950
I1
sVchair
p8592
I1
sg7396
I1
stp8593
Rp8594
sbsg1957
g0
(g5
g6
Ntp8595
Rp8596
(dp8597
g10
g11
((dp8598
Vtoo
p8599
I1
sVtwo
p8600
I1
stp8601
Rp8602
sbsg2016
g0
(g5
g6
Ntp8603
Rp8604
(dp8605
g10
g11
((dp8606
Vheart
p8607
I7
sVpart
p8608
I2
stp8609
Rp8610
sbsg2749
g0
(g5
g6
Ntp8611
Rp8612
(dp8613
g10
g11
((dp8614
g2744
I2
sg5887
I2
stp8615
Rp8616
sbsg7213
g0
(g5
g6
Ntp8617
Rp8618
(dp8619
g10
g11
((dp8620
Vgo
p8621
I9
sVslow
p8622
I2
sVso
p8623
I3
sVknow
p8624
I2
sg7507
I1
sg8426
I1
sVdough
p8625
I1
stp8626
Rp8627
sbsg1756
g0
(g5
g6
Ntp8628
Rp8629
(dp8630
g10
g11
((dp8631
Vgot
p8632
I1
stp8633
Rp8634
sbsg5448
g0
(g5
g6
Ntp8635
Rp8636
(dp8637
g10
g11
((dp8638
Vclaus
p8639
I1
stp8640
Rp8641
sbsg4373
g0
(g5
g6
Ntp8642
Rp8643
(dp8644
g10
g11
((dp8645
Vagain
p8646
I4
sVden
p8647
I1
sVten
p8648
I2
sg1468
I1
sg8012
I1
sVwhen
p8649
I3
stp8650
Rp8651
sbsg3318
g0
(g5
g6
Ntp8652
Rp8653
(dp8654
g10
g11
((dp8655
Vtie
p8656
I1
sVsly
p8657
I1
stp8658
Rp8659
sbsg2369
g0
(g5
g6
Ntp8660
Rp8661
(dp8662
g10
g11
((dp8663
g6656
I1
sg2364
I1
sg7562
I1
stp8664
Rp8665
sbsg1885
g0
(g5
g6
Ntp8666
Rp8667
(dp8668
g10
g11
((dp8669
Vmoan
p8670
I1
stp8671
Rp8672
sbsVenough
p8673
g0
(g5
g6
Ntp8674
Rp8675
(dp8676
g10
g11
((dp8677
g6966
I1
sVrough
p8678
I1
sVstuff
p8679
I11
sVbluff
p8680
I1
stp8681
Rp8682
sbsg5280
g0
(g5
g6
Ntp8683
Rp8684
(dp8685
g10
g11
((dp8686
Vlate
p8687
I1
sVeight
p8688
I1
sVwait
p8689
I1
stp8690
Rp8691
sbsg2779
g0
(g5
g6
Ntp8692
Rp8693
(dp8694
g10
g11
((dp8695
g2774
I1
stp8696
Rp8697
sbsg4041
g0
(g5
g6
Ntp8698
Rp8699
(dp8700
g10
g11
((dp8701
Vdice
p8702
I1
stp8703
Rp8704
sbsg3362
g0
(g5
g6
Ntp8705
Rp8706
(dp8707
g10
g11
((dp8708
Vnear
p8709
I1
sVhere
p8710
I1
stp8711
Rp8712
sbsVeat
p8713
g0
(g5
g6
Ntp8714
Rp8715
(dp8716
g10
g11
((dp8717
g8407
I1
sVmeat
p8718
I4
sVsweet
p8719
I1
sVseat
p8720
I1
sVfeet
p8721
I7
sg4426
I1
sVstreet
p8722
I2
sVmeet
p8723
I1
stp8724
Rp8725
sbsg2897
g0
(g5
g6
Ntp8726
Rp8727
(dp8728
g10
g11
((dp8729
g2892
I1
stp8730
Rp8731
sbsg6998
g0
(g5
g6
Ntp8732
Rp8733
(dp8734
g10
g11
((dp8735
g1827
I1
sVpaid
p8736
I1
stp8737
Rp8738
sbsg4253
g0
(g5
g6
Ntp8739
Rp8740
(dp8741
g10
g11
((dp8742
g4247
I1
stp8743
Rp8744
sbsg5042
g0
(g5
g6
Ntp8745
Rp8746
(dp8747
g10
g11
((dp8748
g5037
I1
stp8749
Rp8750
sbsg1463
g0
(g5
g6
Ntp8751
Rp8752
(dp8753
g10
g11
((dp8754
Vfool
p8755
I1
stp8756
Rp8757
sbsg3274
g0
(g5
g6
Ntp8758
Rp8759
(dp8760
g10
g11
((dp8761
g3269
I1
stp8762
Rp8763
sbsg3257
g0
(g5
g6
Ntp8764
Rp8765
(dp8766
g10
g11
((dp8767
g3252
I1
stp8768
Rp8769
sbsg830
g0
(g5
g6
Ntp8770
Rp8771
(dp8772
g10
g11
((dp8773
Vme
p8774
I11
sg2760
I1
stp8775
Rp8776
sbsVgone
p8777
g0
(g5
g6
Ntp8778
Rp8779
(dp8780
g10
g11
((dp8781
Von
p8782
I37
sVpawn
p8783
I3
stp8784
Rp8785
sbsg147
g0
(g5
g6
Ntp8786
Rp8787
(dp8788
g10
g11
((dp8789
Vsong
p8790
I1
stp8791
Rp8792
sbsVjenny
p8793
g0
(g5
g6
Ntp8794
Rp8795
(dp8796
g10
g11
((dp8797
Vpenny
p8798
I1
stp8799
Rp8800
sbsg5940
g0
(g5
g6
Ntp8801
Rp8802
(dp8803
g10
g11
((dp8804
Vwaist
p8805
I1
stp8806
Rp8807
sbsg8798
g0
(g5
g6
Ntp8808
Rp8809
(dp8810
g10
g11
((dp8811
g8793
I1
stp8812
Rp8813
sbsg6847
g0
(g5
g6
Ntp8814
Rp8815
(dp8816
g10
g11
((dp8817
g6842
I1
stp8818
Rp8819
sbsVpie
p8820
g0
(g5
g6
Ntp8821
Rp8822
(dp8823
g10
g11
((dp8824
Vhigh
p8825
I1
sVdie
p8826
I2
sg5070
I2
sg612
I1
sVsly
p8827
I1
stp8828
Rp8829
sbsg7935
g0
(g5
g6
Ntp8830
Rp8831
(dp8832
g10
g11
((dp8833
g7930
I1
sg62
I4
stp8834
Rp8835
sbsVat
p8836
g0
(g5
g6
Ntp8837
Rp8838
(dp8839
g10
g11
((dp8840
g6194
I1
sVhat
p8841
I6
sg6772
I1
sVthat
p8842
I1
stp8843
Rp8844
sbsg76
g0
(g5
g6
Ntp8845
Rp8846
(dp8847
g10
g11
((dp8848
g71
I1
stp8849
Rp8850
sbsVhound
p8851
g0
(g5
g6
Ntp8852
Rp8853
(dp8854
g10
g11
((dp8855
Varound
p8856
I2
sVbound
p8857
I2
stp8858
Rp8859
sbsVblues
p8860
g0
(g5
g6
Ntp8861
Rp8862
(dp8863
g10
g11
((dp8864
g5369
I1
sVshoes
p8865
I36
sVlose
p8866
I14
sg4717
I1
sVnews
p8867
I25
sVbooze
p8868
I7
sVchoose
p8869
I6
stp8870
Rp8871
sbsg1270
g0
(g5
g6
Ntp8872
Rp8873
(dp8874
g10
g11
((dp8875
g1972
I1
sVdream
p8876
I1
stp8877
Rp8878
sbsVagain
p8879
g0
(g5
g6
Ntp8880
Rp8881
(dp8882
g10
g11
((dp8883
g6948
I1
sVten
p8884
I9
sVmen
p8885
I4
sVwhen
p8886
I2
sg3586
I2
sg506
I3
sg5480
I6
sVden
p8887
I1
sVjane
p8888
I2
sVhen
p8889
I4
stp8890
Rp8891
sbsg2710
g0
(g5
g6
Ntp8892
Rp8893
(dp8894
g10
g11
((dp8895
g2705
I1
stp8896
Rp8897
sbsg5297
g0
(g5
g6
Ntp8898
Rp8899
(dp8900
g10
g11
((dp8901
Vboy
p8902
I1
stp8903
Rp8904
sbsg3974
g0
(g5
g6
Ntp8905
Rp8906
(dp8907
g10
g11
((dp8908
Vnight
p8909
I12
sVright
p8910
I12
sVsight
p8911
I1
sVfight
p8912
I1
stp8913
Rp8914
sbsg4983
g0
(g5
g6
Ntp8915
Rp8916
(dp8917
g10
g11
((dp8918
Vcook
p8919
I2
sg5118
I1
sg217
I1
sg1849
I1
stp8920
Rp8921
sbsg8301
g0
(g5
g6
Ntp8922
Rp8923
(dp8924
g10
g11
((dp8925
g7766
I1
sg8296
I1
sg5062
I1
sVstick
p8926
I3
stp8927
Rp8928
sbsg2344
g0
(g5
g6
Ntp8929
Rp8930
(dp8931
g10
g11
((dp8932
g2339
I1
stp8933
Rp8934
sbsg643
g0
(g5
g6
Ntp8935
Rp8936
(dp8937
g10
g11
((dp8938
g280
I1
sg6939
I1
sVdo
p8939
I215
sVthrough
p8940
I21
sg7166
I4
sVtrue
p8941
I12
sVblue
p8942
I25
sg1796
I6
sVtwo
p8943
I15
sg6891
I1
sVto
p8944
I3
sg7421
I1
sg1949
I61
sVlou
p8945
I2
sVnew
p8946
I1
sg102
I1
sg4125
I1
stp8947
Rp8948
sbsg8868
g0
(g5
g6
Ntp8949
Rp8950
(dp8951
g10
g11
((dp8952
Vchoose
p8953
I1
sVblues
p8954
I7
sVshoes
p8955
I2
sVlose
p8956
I1
stp8957
Rp8958
sbsg5532
g0
(g5
g6
Ntp8959
Rp8960
(dp8961
g10
g11
((dp8962
Vcar
p8963
I5
stp8964
Rp8965
sbsVhey
p8966
g0
(g5
g6
Ntp8967
Rp8968
(dp8969
g10
g11
((dp8970
Vway
p8971
I3
sVtoday
p8972
I1
stp8973
Rp8974
sbsg1181
g0
(g5
g6
Ntp8975
Rp8976
(dp8977
g10
g11
((dp8978
g1170
I5
sg2294
I1
sVmay
p8979
I1
sVaway
p8980
I36
sg2062
I1
sVsay
p8981
I1
sVlay
p8982
I1
sVway
p8983
I12
sVday
p8984
I28
sVtoday
p8985
I6
stp8986
Rp8987
sbsVtown
p8988
g0
(g5
g6
Ntp8989
Rp8990
(dp8991
g10
g11
((dp8992
Vdown
p8993
I133
sVbrown
p8994
I15
sVaround
p8995
I61
sVgown
p8996
I1
sVclown
p8997
I2
sVfrown
p8998
I2
stp8999
Rp9000
sbsVchance
p9001
g0
(g5
g6
Ntp9002
Rp9003
(dp9004
g10
g11
((dp9005
Vdance
p9006
I3
sg1184
I1
sg5396
I4
stp9007
Rp9008
sbsg7475
g0
(g5
g6
Ntp9009
Rp9010
(dp9011
g10
g11
((dp9012
g7470
I1
stp9013
Rp9014
sbsg1464
g0
(g5
g6
Ntp9015
Rp9016
(dp9017
g10
g11
((dp9018
Vfool
p9019
I2
stp9020
Rp9021
sbsVwife
p9022
g0
(g5
g6
Ntp9023
Rp9024
(dp9025
g10
g11
((dp9026
Vlife
p9027
I18
stp9028
Rp9029
sbsVrule
p9030
g0
(g5
g6
Ntp9031
Rp9032
(dp9033
g10
g11
((dp9034
Vfool
p9035
I9
sVschool
p9036
I9
sVmule
p9037
I4
sVcool
p9038
I1
stp9039
Rp9040
sbsg249
g0
(g5
g6
Ntp9041
Rp9042
(dp9043
g10
g11
((dp9044
g243
I2
sVland
p9045
I1
sVhand
p9046
I8
stp9047
Rp9048
sbsg5563
g0
(g5
g6
Ntp9049
Rp9050
(dp9051
g10
g11
((dp9052
g5556
I1
stp9053
Rp9054
sbsg7147
g0
(g5
g6
Ntp9055
Rp9056
(dp9057
g10
g11
((dp9058
g7142
I2
stp9059
Rp9060
sbstp9061
Rp9062
(dp9063
S'_probdist_factory'
p9064
g5
sS'_factory_args'
p9065
(tsS'_factory_kw_args'
p9066
(dp9067
sb.